(dp1
I0
S''
sI1
S'from'
p2
sI2
S'threading'
p3
sI3
S'import'
p4
sI4
S'local'
p5
sI5
S'_enter'
p6
sI6
S'warnings'
p7
sI7
S'_tab'
p8
sI8
S'django'
p9
sI9
S'.'
sI10
S'conf'
p10
sI11
S'settings'
p11
sI12
S'core'
p12
sI13
S'signals'
p13
sI14
S'cache'
p14
sI15
S'backends'
p15
sI16
S'base'
p16
sI17
S'('
sI18
S'invalidcachebackenderror'
p17
sI19
S','
sI20
S'cachekeywarning'
p18
sI21
S'basecache'
p19
sI22
S')'
sI23
S'exceptions'
p20
sI24
S'improperlyconfigured'
p21
sI25
S'utils'
p22
sI26
S'deprecation'
p23
sI27
S'removedindjango19warning'
p24
sI28
S'module_loading'
p25
sI29
S'import_string'
p26
sI30
S'__all__'
p27
sI31
S'='
sI32
S'['
sI33
S"'get_cache"
p28
sI34
S"'"
sI35
S"'cache"
p29
sI36
S"'default_cache_alias"
p30
sI37
S"'invalidcachebackenderror"
p31
sI38
S"'cachekeywarning"
p32
sI39
S"'basecache"
p33
sI40
S']'
sI41
S'default_cache_alias'
p34
sI42
S"'default"
p35
sI43
S'if'
p36
sI44
S'not'
p37
sI45
S'in'
p38
sI46
S'caches'
p39
sI47
S':'
sI48
S'raise'
p40
sI49
S'``'
p41
sI50
S'you'
p42
sI51
S'must'
p43
sI52
S'define'
p44
sI53
S'a'
sI54
S'%'
sI55
S's'
sI56
S"''"
p45
sI57
S'def'
p46
sI58
S'get_cache'
p47
sI59
S'backend'
p48
sI60
S'**'
p49
sI61
S'kwargs'
p50
sI62
S'warn'
p51
sI63
S'is'
p52
sI64
S'deprecated'
p53
sI65
S'favor'
p54
sI66
S'of'
p55
sI67
S"'caches"
p56
sI68
S'stacklevel'
p57
sI69
S'2'
sI70
S'_create_cache'
p58
sI71
S'request_finished'
p59
sI72
S'connect'
p60
sI73
S'close'
p61
sI74
S'return'
p62
sI75
S'try'
p63
sI76
S'except'
p64
sI77
S'keyerror'
p65
sI78
S'importerror'
p66
sI79
S'as'
p67
sI80
S'e'
sI81
S'could'
p68
sI82
S'find'
p69
sI83
S'location'
p70
sI84
S'pop'
p71
sI85
S"'location"
p72
sI86
S'params'
p73
sI87
S'else'
p74
sI88
S'copy'
p75
sI89
S'update'
p76
sI90
S"'backend"
p77
sI91
S'backend_cls'
p78
sI92
S'class'
p79
sI93
S'cachehandler'
p80
sI94
S'object'
p81
sI95
S'__init__'
p82
sI96
S'self'
p83
sI97
S'_caches'
p84
sI98
S'__getitem__'
p85
sI99
S'alias'
p86
sI100
S'attributeerror'
p87
sI101
S'{'
sI102
S'}'
sI103
S'pass'
p88
sI104
S'config'
p89
sI105
S'for'
p90
sI106
S'all'
p91
sI107
S'getattr'
p92
sI108
S'values'
p93
sI109
S'defaultcacheproxy'
p94
sI110
S'__getattr__'
p95
sI111
S'name'
p96
sI112
S'__setattr__'
p97
sI113
S'value'
p98
sI114
S'setattr'
p99
sI115
S'__delattr__'
p100
sI116
S'delattr'
p101
sI117
S'__contains__'
p102
sI118
S'key'
p103
sI119
S'__eq__'
p104
sI120
S'other'
p105
sI121
S'=='
p106
sI122
S'__ne__'
p107
sI123
S'!'
sI124
S'close_caches'
p108
sI125
S'__future__'
p109
sI126
S'unicode_literals'
p110
sI127
S'time'
p111
sI128
S'djangoruntimewarning'
p112
sI129
S'default_timeout'
p113
sI130
S'memcache_max_key_length'
p114
sI131
S'250'
p115
sI132
S'default_key_func'
p116
sI133
S'key_prefix'
p117
sI134
S'version'
p118
sI135
S'get_key_func'
p119
sI136
S'key_func'
p120
sI137
S'none'
p121
sI138
S'callable'
p122
sI139
S'timeout'
p123
sI140
S'get'
p124
sI141
S"'timeout"
p125
sI142
S'300'
p126
sI143
S'int'
p127
sI144
S'valueerror'
p128
sI145
S'typeerror'
p129
sI146
S'options'
p130
sI147
S"'options"
p131
sI148
S'max_entries'
p132
sI149
S"'max_entries"
p133
sI150
S'_max_entries'
p134
sI151
S'cull_frequency'
p135
sI152
S"'cull_frequency"
p136
sI153
S'3'
sI154
S'_cull_frequency'
p137
sI155
S"'key_prefix"
p138
sI156
S"'version"
p139
sI157
S'1'
sI158
S"'key_function"
p140
sI159
S'get_backend_timeout'
p141
sI160
S'elif'
p142
sI161
S'0'
sI162
S'-'
sI163
S'+'
sI164
S'make_key'
p143
sI165
S'new_key'
p144
sI166
S'add'
p145
sI167
S'set'
p146
sI168
S'the'
p147
sI169
S'does'
p148
sI170
S'already'
p149
sI171
S'exist'
p150
sI172
S'given'
p151
sI173
S'that'
p152
sI174
S'will'
p153
sI175
S'be'
p154
sI176
S'used'
p155
sI177
S';'
sI178
S'otherwise'
p156
sI179
S'default'
p157
sI180
S'returns'
p158
sI181
S'true'
p159
sI182
S'was'
p160
sI183
S'stored'
p161
sI184
S'false'
p162
sI185
S'notimplementederror'
p163
sI186
S"'subclasses"
p164
sI187
S'provide'
p165
sI188
S'an'
p166
sI189
S'method'
p167
sI190
S'delete'
p168
sI191
S'get_many'
p169
sI192
S'keys'
p170
sI193
S'd'
sI194
S'k'
sI195
S'val'
p171
sI196
S'has_key'
p172
sI197
S'incr'
p173
sI198
S'delta'
p174
sI199
S'found'
p175
sI200
S'new_value'
p176
sI201
S'decr'
p177
sI202
S'set_many'
p178
sI203
S'data'
p179
sI204
S'items'
p180
sI205
S'delete_many'
p181
sI206
S'clear'
p182
sI207
S'validate_key'
p183
sI208
S'len'
p184
sI209
S'>'
sI210
S'cause'
p185
sI211
S'errors'
p186
sI212
S'with'
p187
sI213
S'memcached'
p188
sI214
S'longer'
p189
sI215
S'than'
p190
sI216
S'char'
p191
sI217
S'ord'
p192
sI218
S'<'
sI219
S'33'
p193
sI220
S'or'
p194
sI221
S'127'
p195
sI222
S'contains'
p196
sI223
S'characters'
p197
sI224
S"'errors"
p198
sI225
S'r'
sI226
S'incr_version'
p199
sI227
S'decr_version'
p200
sI228
S'connection'
p201
sI229
S'base64'
p202
sI230
S'datetime'
p203
sI231
S'six'
p204
sI232
S'moves'
p205
sI233
S'cpickle'
p206
sI234
S'pickle'
p207
sI235
S'db'
p208
sI236
S'connections'
p209
sI237
S'transaction'
p210
sI238
S'router'
p211
sI239
S'databaseerror'
p212
sI240
S'typecast_timestamp'
p213
sI241
S'timezone'
p214
sI242
S'encoding'
p215
sI243
S'force_bytes'
p216
sI244
S'table'
p217
sI245
S'db_table'
p218
sI246
S'app_label'
p219
sI247
S"'django_cache"
p220
sI248
S'model_name'
p221
sI249
S"'cacheentry"
p222
sI250
S'verbose_name'
p223
sI251
S'entry'
p224
sI252
S'verbose_name_plural'
p225
sI253
S'entries'
p226
sI254
S'object_name'
p227
sI255
S'abstract'
p228
sI256
S'managed'
p229
sI257
S'proxy'
p230
sI258
S'basedatabasecache'
p231
sI259
S'_table'
p232
sI260
S'cacheentry'
p233
sI261
S'_meta'
p234
sI262
S'cache_model_class'
p235
sI263
S'databasecache'
p236
sI264
S'db_for_read'
p237
sI265
S'ops'
p238
sI266
S'quote_name'
p239
sI267
S'cursor'
p240
sI268
S'execute'
p241
sI269
S'select'
p242
sI270
S'cache_key'
p243
sI271
S'expires'
p244
sI272
S'where'
p245
sI273
S'row'
p246
sI274
S'fetchone'
p247
sI275
S'now'
p248
sI276
S'features'
p249
sI277
S'needs_datetime_string_cast'
p250
sI278
S'and'
p251
sI279
S'isinstance'
p252
sI280
S'str'
p253
sI281
S'db_for_write'
p254
sI282
S'process_clob'
p255
sI283
S'loads'
p256
sI284
S'b64decode'
p257
sI285
S'_base_set'
p258
sI286
S"'set"
p259
sI287
S"'add"
p260
sI288
S'mode'
p261
sI289
S'count'
p262
sI290
S'*'
sI291
S'num'
p263
sI292
S'replace'
p264
sI293
S'microsecond'
p265
sI294
S'exp'
p266
sI295
S'max'
p267
sI296
S'use_tz'
p268
sI297
S'utcfromtimestamp'
p269
sI298
S'fromtimestamp'
p270
sI299
S'_cull'
p271
sI300
S'pickled'
p272
sI301
S'dumps'
p273
sI302
S'highest_protocol'
p274
sI303
S'b64encoded'
p275
sI304
S'b64encode'
p276
sI305
S'py3'
p277
sI306
S'decode'
p278
sI307
S"'latin1"
p279
sI308
S'atomic'
p280
sI309
S'using'
p281
sI310
S'result'
p282
sI311
S'current_expires'
p283
sI312
S'value_to_db_datetime'
p284
sI313
S'insert'
p285
sI314
S'into'
p286
sI315
S'utcnow'
p287
sI316
S'tzinfo'
p288
sI317
S'cull_num'
p289
sI318
S'//'
p290
sI319
S'cache_key_culling_sql'
p291
sI320
S"'delete"
p292
sI321
S'cacheclass'
p293
sI322
S'dummycache'
p294
sI323
S'host'
p295
sI324
S'args'
p296
sI325
S'errno'
p297
sI326
S'glob'
p298
sI327
S'hashlib'
p299
sI328
S'io'
p300
sI329
S'os'
p301
sI330
S'random'
p302
sI331
S'tempfile'
p303
sI332
S'zlib'
p304
sI333
S'files'
p305
sI334
S'move'
p306
sI335
S'file_move_safe'
p307
sI336
S'filebasedcache'
p308
sI337
S'cache_suffix'
p309
sI338
S'djcache'
p310
sI339
S'dir'
p311
sI340
S'super'
p312
sI341
S'_dir'
p313
sI342
S'path'
p314
sI343
S'abspath'
p315
sI344
S'_createdir'
p316
sI345
S'fname'
p317
sI346
S'_key_to_file'
p318
sI347
S'exists'
p319
sI348
S'open'
p320
sI349
S"'rb"
p321
sI350
S'f'
sI351
S'_is_expired'
p322
sI352
S'decompress'
p323
sI353
S'read'
p324
sI354
S'ioerror'
p325
sI355
S'enoent'
p326
sI356
S'fd'
p327
sI357
S'tmp_path'
p328
sI358
S'mkstemp'
p329
sI359
S'renamed'
p330
sI360
S"'wb"
p331
sI361
S'expiry'
p332
sI362
S'write'
p333
sI363
S'compress'
p334
sI364
S'allow_overwrite'
p335
sI365
S'finally'
p336
sI366
S'remove'
p337
sI367
S'_delete'
p338
sI368
S'startswith'
p339
sI369
S'oserror'
p340
sI370
S'filelist'
p341
sI371
S'_list_cache_files'
p342
sI372
S'num_entries'
p343
sI373
S'sample'
p344
sI374
S'/'
sI375
S'makedirs'
p345
sI376
S'0o700'
p346
sI377
S'eexist'
p347
sI378
S'environmenterror'
p348
sI379
S'directory'
p349
sI380
S'created'
p350
sI381
S'join'
p351
sI382
S'md5'
p352
sI383
S'hexdigest'
p353
sI384
S'load'
p354
sI385
S'glob1'
p355
sI386
S"'*"
p356
sI387
S'synch'
p357
sI388
S'rwlock'
p358
sI389
S'_expire_info'
p359
sI390
S'_locks'
p360
sI391
S'locmemcache'
p361
sI392
S'_cache'
p362
sI393
S'setdefault'
p363
sI394
S'_lock'
p364
sI395
S'writer'
p365
sI396
S'_has_expired'
p366
sI397
S'_set'
p367
sI398
S'reader'
p368
sI399
S'pickleerror'
p369
sI400
S'del'
p370
sI401
S'doomed'
p371
sI402
S'i'
sI403
S'enumerate'
p372
sI404
S'renamemethodsbase'
p373
sI405
S'force_str'
p374
sI406
S'functional'
p375
sI407
S'cached_property'
p376
sI408
S'basememcachedcachemethods'
p377
sI409
S'renamed_methods'
p378
sI410
S"'_get_memcache_timeout"
p379
sI411
S"'get_backend_timeout"
p380
sI412
S'basememcachedcache'
p381
sI413
S'with_metaclass'
p382
sI414
S'server'
p383
sI415
S'library'
p384
sI416
S'value_not_found_exception'
p385
sI417
S'string_types'
p386
sI418
S'_servers'
p387
sI419
S'split'
p388
sI420
S'libraryvaluenotfoundexception'
p389
sI421
S'_lib'
p390
sI422
S'_options'
p391
sI423
S'@'
sI424
S'property'
p392
sI425
S"'_client"
p393
sI426
S'_client'
p394
sI427
S'client'
p395
sI428
S'2592000'
p396
sI429
S'+='
p397
sI430
S'new_keys'
p398
sI431
S'x'
sI432
S'ret'
p399
sI433
S'get_multi'
p400
sI434
S'_'
sI435
S'm'
sI436
S'dict'
p401
sI437
S'zip'
p402
sI438
S'v'
sI439
S'disconnect_all'
p403
sI440
S'safe_data'
p404
sI441
S'set_multi'
p405
sI442
S'l'
sI443
S'lambda'
p406
sI444
S'delete_multi'
p407
sI445
S'map'
p408
sI446
S'flush_all'
p409
sI447
S'memcachedcache'
p410
sI448
S'memcache'
p411
sI449
S'pickleprotocol'
p412
sI450
S'pylibmccache'
p413
sI451
S'pylibmc'
p414
sI452
S'notfound'
p415
sI453
S'behaviors'
p416
sI454
S'http'
p417
sI455
S'urlquote'
p418
sI456
S'template_fragment_key_template'
p419
sI457
S"'template"
p420
sI458
S'make_template_fragment_key'
p421
sI459
S'fragment_name'
p422
sI460
S'vary_on'
p423
sI461
S'var'
p424
sI462
S'messages'
p425
sI463
S'checkmessage'
p426
sI464
S'debug'
p427
sI465
S'info'
p428
sI466
S'warning'
p429
sI467
S'error'
p430
sI468
S'critical'
p431
sI469
S'registry'
p432
sI470
S'register'
p433
sI471
S'run_checks'
p434
sI472
S'tag_exists'
p435
sI473
S'tags'
p436
sI474
S'checks'
p437
sI475
S'compatibility'
p438
sI476
S'django_1_6_0'
p439
sI477
S'django_1_7_0'
p440
sI478
S'model_checks'
p441
sI479
S"'checkmessage"
p442
sI480
S"'debug"
p443
sI481
S"'info"
p444
sI482
S"'warning"
p445
sI483
S"'error"
p446
sI484
S"'critical"
p447
sI485
S"'register"
p448
sI486
S"'run_checks"
p449
sI487
S"'tag_exists"
p450
sI488
S"'tags"
p451
sI489
S'apps'
p452
sI490
S'check_1_6_compatibility'
p453
sI491
S'extend'
p454
sI492
S'_check_test_runner'
p455
sI493
S'_check_boolean_field_default_value'
p456
sI494
S'app_configs'
p457
sI495
S'weight'
p458
sI496
S'is_overridden'
p459
sI497
S"'test_runner"
p460
sI498
S'site_id'
p461
sI499
S'base_dir'
p462
sI500
S"'template_loaders"
p463
sI501
S"'managers"
p464
sI502
S"'admins"
p465
sI503
S"'django"
p466
sI504
S'middleware'
p467
sI505
S'clickjacking'
p468
sI506
S'xframeoptionsmiddleware'
p469
sI507
S'middleware_classes'
p470
sI508
S'6'
sI509
S'some'
p471
sI510
S'project'
p472
sI511
S'unittests'
p473
sI512
S'may'
p474
sI513
S'expected'
p475
sI514
S'hint'
p476
sI515
S'introduced'
p477
sI516
S'new'
p478
sI517
S'test'
p479
sI518
S'runner'
p480
sI519
S'it'
p481
sI520
S'looks'
p482
sI521
S'like'
p483
sI522
S'this'
p484
sI523
S'generated'
p485
sI524
S'5'
sI525
S'earlier'
p486
sI526
S'should'
p487
sI527
S'ensure'
p488
sI528
S'your'
p489
sI529
S'tests'
p490
sI530
S'are'
p491
sI531
S'running'
p492
sI532
S'&'
sI533
S'behaving'
p493
sI534
S'see'
p494
sI535
S'https'
p495
sI536
S'//docs'
p496
sI537
S'djangoproject'
p497
sI538
S'com/en/dev/releases/1'
p498
sI539
S'6/'
p499
sI540
S'#'
sI541
S'new-test-runner'
p500
sI542
S'more'
p501
sI543
S'information'
p502
sI544
S'obj'
p503
sI545
S'id'
p504
sI546
S"'1_6"
p505
sI547
S'w001'
p506
sI548
S'models'
p507
sI549
S'problem_fields'
p508
sI550
S'field'
p509
sI551
S'model'
p510
sI552
S'get_models'
p511
sI553
S'app_config'
p512
sI554
S'local_fields'
p513
sI555
S'booleanfield'
p514
sI556
S'has_default'
p515
sI557
S'have'
p516
sI558
S'changed'
p517
sI559
S'to'
p518
sI560
S'com/en/1'
p519
sI561
S'6/ref/models/fields/'
p520
sI562
S'w002'
p521
sI563
S'check_1_7_compatibility'
p522
sI564
S'_check_middleware_classes'
p523
sI565
S"'middleware_classes"
p524
sI566
S'7'
sI567
S'global'
p525
sI568
S'defaults'
p526
sI569
S'contrib'
p527
sI570
S'sessions'
p528
sI571
S'sessionmiddleware'
p529
sI572
S'auth'
p530
sI573
S'authenticationmiddleware'
p531
sI574
S'messagemiddleware'
p532
sI575
S'were'
p533
sI576
S'removed'
p534
sI577
S'needs'
p535
sI578
S'these'
p536
sI579
S'then'
p537
sI580
S'configure'
p538
sI581
S'setting'
p539
sI582
S"'1_7"
p540
sI583
S'python_2_unicode_compatible'
p541
sI584
S'10'
p542
sI585
S'20'
p543
sI586
S'30'
p544
sI587
S'40'
p545
sI588
S'50'
p546
sI589
S'level'
p547
sI590
S'msg'
p548
sI591
S'assert'
p549
sI592
S'first'
p550
sI593
S'argument'
p551
sI594
S'attr'
p552
sI595
S"'level"
p553
sI596
S"'msg"
p554
sI597
S"'hint"
p555
sI598
S"'obj"
p556
sI599
S"'id"
p557
sI600
S'__str__'
p558
sI601
S'?'
sI602
S'modelbase'
p559
sI603
S'app'
p560
sI604
S'\\n\\thint'
p561
sI605
S'__repr__'
p562
sI606
S'__class__'
p563
sI607
S'__name__'
p564
sI608
S'is_serious'
p565
sI609
S'is_silenced'
p566
sI610
S'silenced_system_checks'
p567
sI611
S'itertools'
p568
sI612
S'chain'
p569
sI613
S'types'
p570
sI614
S'check_all_models'
p571
sI615
S'check'
p572
sI616
S'list'
p573
sI617
S'check_model_signals'
p574
sI618
S'modelsignal'
p575
sI619
S'reference'
p576
sI620
S'receivers'
p577
sI621
S'unresolved_references'
p578
sI622
S'receiver'
p579
sI623
S'functiontype'
p580
sI624
S'description'
p581
sI625
S'function'
p582
sI626
S'instance'
p583
sI627
S'append'
p584
sI628
S'connected'
p585
sI629
S'signal'
p586
sI630
S'lazy'
p587
sI631
S'sender'
p588
sI632
S'which'
p589
sI633
S'has'
p590
sI634
S'been'
p591
sI635
S'installed'
p592
sI636
S'__module__'
p593
sI637
S"'signals"
p594
sI638
S'e001'
p595
sI639
S'itercompat'
p596
sI640
S'is_iterable'
p597
sI641
S'admin'
p598
sI642
S"'admin"
p599
sI643
S"'compatibility"
p600
sI644
S"'models"
p601
sI645
S'checkregistry'
p602
sI646
S'registered_checks'
p603
sI647
S'inner'
p604
sI648
S'hasattr'
p605
sI649
S'new_errors'
p606
sI650
S'did'
p607
sI651
S'functions'
p608
sI652
S'registered'
p609
sI653
S'tag'
p610
sI654
S'tags_available'
p611
sI655
S'csrf'
p612
sI656
S'get_token'
p613
sI657
S'smart_text'
p614
sI658
S'request'
p615
sI659
S'_get_val'
p616
sI660
S'token'
p617
sI661
S"'notprovided"
p618
sI662
S'text_type'
p619
sI663
S"'csrf_token"
p620
sI664
S'context_extras'
p621
sI665
S'meta'
p622
sI666
S"'remote_addr"
p623
sI667
S'internal_ips'
p624
sI668
S"'sql_queries"
p625
sI669
S'queries'
p626
sI670
S'i18n'
p627
sI671
S'translation'
p628
sI672
S"'languages"
p629
sI673
S'languages'
p630
sI674
S"'language_code"
p631
sI675
S'get_language'
p632
sI676
S"'language_bidi"
p633
sI677
S'get_language_bidi'
p634
sI678
S'tz'
p635
sI679
S"'time_zone"
p636
sI680
S'get_current_timezone_name'
p637
sI681
S'static'
p638
sI682
S"'static_url"
p639
sI683
S'static_url'
p640
sI684
S'media'
p641
sI685
S"'media_url"
p642
sI686
S'media_url'
p643
sI687
S"'request"
p644
sI688
S'functools'
p645
sI689
S'reduce'
p646
sI690
S'operator'
p647
sI691
S'force_text'
p648
sI692
S'runtimewarning'
p649
sI693
S'appregistrynotready'
p650
sI694
S'exception'
p651
sI695
S'objectdoesnotexist'
p652
sI696
S'silent_variable_failure'
p653
sI697
S'multipleobjectsreturned'
p654
sI698
S'suspiciousoperation'
p655
sI699
S'suspiciousmultipartform'
p656
sI700
S'suspiciousfileoperation'
p657
sI701
S'disallowedhost'
p658
sI702
S'disallowedredirect'
p659
sI703
S'permissiondenied'
p660
sI704
S'viewdoesnotexist'
p661
sI705
S'middlewarenotused'
p662
sI706
S'fielderror'
p663
sI707
S'non_field_errors'
p664
sI708
S"'__all__"
p665
sI709
S'validationerror'
p666
sI710
S'message'
p667
sI711
S'code'
p668
sI712
S"'error_dict"
p669
sI713
S'error_dict'
p670
sI714
S"'message"
p671
sI715
S"'code"
p672
sI716
S'error_list'
p673
sI717
S'message_dict'
p674
sI718
S'update_error_dict'
p675
sI719
S'__iter__'
p676
sI720
S'yield'
p677
sI721
S'repr'
p678
sI722
S"'validationerror"
p679
sI723
S'file'
p680
sI724
S"'file"
p681
sI725
S'bytesio'
p682
sI726
S'stringio'
p683
sI727
S'unsupportedoperation'
p684
sI728
S'fileproxymixin'
p685
sI729
S'default_chunk_size'
p686
sI730
S'64'
p687
sI731
S"'name"
p688
sI732
S"'mode"
p689
sI733
S'__bool__'
p690
sI734
S'bool'
p691
sI735
S'__nonzero__'
p692
sI736
S'type'
p693
sI737
S'__len__'
p694
sI738
S'size'
p695
sI739
S'_get_size_from_underlying_file'
p696
sI740
S"'size"
p697
sI741
S'getsize'
p698
sI742
S"'tell"
p699
sI743
S"'seek"
p700
sI744
S'pos'
p701
sI745
S'tell'
p702
sI746
S'seek'
p703
sI747
S'seek_end'
p704
sI748
S'unable'
p705
sI749
S'determine'
p706
sI750
S"'s"
p707
sI751
S'_get_size'
p708
sI752
S"'_size"
p709
sI753
S'_size'
p710
sI754
S'_set_size'
p711
sI755
S'_get_closed'
p712
sI756
S'closed'
p713
sI757
S'chunks'
p714
sI758
S'chunk_size'
p715
sI759
S'while'
p716
sI760
S'break'
p717
sI761
S'multiple_chunks'
p718
sI762
S'buffer_'
p719
sI763
S'chunk'
p720
sI764
S'chunk_buffer'
p721
sI765
S'line'
p722
sI766
S"b'\\n"
p723
sI767
S"b'\\r"
p724
sI768
S'__enter__'
p725
sI769
S'__exit__'
p726
sI770
S'exc_type'
p727
sI771
S'exc_value'
p728
sI772
S'tb'
p729
sI773
S'can'
p730
sI774
S'reopened'
p731
sI775
S'contentfile'
p732
sI776
S'content'
p733
sI777
S'stream_class'
p734
sI778
S"'raw"
p735
sI779
S'imagefile'
p736
sI780
S'_get_width'
p737
sI781
S'_get_image_dimensions'
p738
sI782
S'width'
p739
sI783
S'_get_height'
p740
sI784
S'height'
p741
sI785
S"'_dimensions_cache"
p742
sI786
S'_dimensions_cache'
p743
sI787
S'get_image_dimensions'
p744
sI788
S'file_or_path'
p745
sI789
S'pil'
p746
sI790
S'pillowimagefile'
p747
sI791
S'p'
sI792
S'parser'
p748
sI793
S"'read"
p749
sI794
S'file_pos'
p750
sI795
S'1024'
p751
sI796
S'feed'
p752
sI797
S'-5'
p753
sI798
S'image'
p754
sI799
S"'lock_ex"
p755
sI800
S"'lock_sh"
p756
sI801
S"'lock_nb"
p757
sI802
S"'lock"
p758
sI803
S"'unlock"
p759
sI804
S'_fd'
p760
sI805
S'fileno'
p761
sI806
S"'fileno"
p762
sI807
S"'nt"
p763
sI808
S'msvcrt'
p764
sI809
S'ctypes'
p765
sI810
S'sizeof'
p766
sI811
S'c_ulong'
p767
sI812
S'c_void_p'
p768
sI813
S'c_int64'
p769
sI814
S'structure'
p770
sI815
S'union'
p771
sI816
S'pointer'
p772
sI817
S'windll'
p773
sI818
S'byref'
p774
sI819
S'wintypes'
p775
sI820
S'dword'
p776
sI821
S'handle'
p777
sI822
S'lock_sh'
p778
sI823
S'lock_nb'
p779
sI824
S'0x1'
p780
sI825
S'lock_ex'
p781
sI826
S'0x2'
p782
sI827
S'ulong_ptr'
p783
sI828
S'pvoid'
p784
sI829
S'_offset'
p785
sI830
S'_fields_'
p786
sI831
S"'offset"
p787
sI832
S"'offsethigh"
p788
sI833
S'_offset_union'
p789
sI834
S'_anonymous_'
p790
sI835
S"'_offset"
p791
sI836
S"'pointer"
p792
sI837
S'overlapped'
p793
sI838
S"'_offset_union"
p794
sI839
S"'internal"
p795
sI840
S"'internalhigh"
p796
sI841
S"'hevent"
p797
sI842
S'lpoverlapped'
p798
sI843
S'lockfileex'
p799
sI844
S'kernel32'
p800
sI845
S'restype'
p801
sI846
S'argtypes'
p802
sI847
S'unlockfileex'
p803
sI848
S'lock'
p804
sI849
S'flags'
p805
sI850
S'hfile'
p806
sI851
S'get_osfhandle'
p807
sI852
S'0xffff0000'
p808
sI853
S'unlock'
p809
sI854
S'fcntl'
p810
sI855
S'flock'
p811
sI856
S'lock_un'
p812
sI857
S'locks'
p813
sI858
S'shutil'
p814
sI859
S'copystat'
p815
sI860
S'stat'
p816
sI861
S'src'
p817
sI862
S'dst'
p818
sI863
S'st'
p819
sI864
S's_imode'
p820
sI865
S'st_mode'
p821
sI866
S"'utime"
p822
sI867
S'utime'
p823
sI868
S'st_atime'
p824
sI869
S'st_mtime'
p825
sI870
S"'chmod"
p826
sI871
S'chmod'
p827
sI872
S"'file_move_safe"
p828
sI873
S'_samefile'
p829
sI874
S"'samefile"
p830
sI875
S'samefile'
p831
sI876
S'normcase'
p832
sI877
S'old_file_name'
p833
sI878
S'new_file_name'
p834
sI879
S'access'
p835
sI880
S'f_ok'
p836
sI881
S'destination'
p837
sI882
S'rename'
p838
sI883
S'old_file'
p839
sI884
S'o_wronly'
p840
sI885
S'|'
sI886
S'o_creat'
p841
sI887
S"'o_binary"
p842
sI888
S'o_excl'
p843
sI889
S'current_chunk'
p844
sI890
S'b'
sI891
S"'winerror"
p845
sI892
S'32'
p846
sI893
S"'errno"
p847
sI894
S'13'
p848
sI895
S'filepath_to_uri'
p849
sI896
S'lazyobject'
p850
sI897
S'urllib'
p851
sI898
S'parse'
p852
sI899
S'urljoin'
p853
sI900
S'text'
p854
sI901
S'get_valid_filename'
p855
sI902
S'_os'
p856
sI903
S'safe_join'
p857
sI904
S'abspathu'
p858
sI905
S'deconstruct'
p859
sI906
S'deconstructible'
p860
sI907
S"'storage"
p861
sI908
S"'filesystemstorage"
p862
sI909
S"'defaultstorage"
p863
sI910
S"'default_storage"
p864
sI911
S'storage'
p865
sI912
S'_open'
p866
sI913
S'save'
p867
sI914
S"'chunks"
p868
sI915
S'get_available_name'
p869
sI916
S'_save'
p870
sI917
S"'\\\\"
p871
sI918
S"'/"
p872
sI919
S'get_valid_name'
p873
sI920
S'dir_name'
p874
sI921
S'file_name'
p875
sI922
S'file_root'
p876
sI923
S'file_ext'
p877
sI924
S'splitext'
p878
sI925
S's_'
p879
sI926
S'next'
p880
sI927
S"n't"
p881
sI928
S'support'
p882
sI929
S'absolute'
p883
sI930
S'paths'
p884
sI931
S'listdir'
p885
sI932
S'url'
p886
sI933
S'accessed_time'
p887
sI934
S'created_time'
p888
sI935
S'modified_time'
p889
sI936
S'filesystemstorage'
p890
sI937
S'base_url'
p891
sI938
S'file_permissions_mode'
p892
sI939
S'directory_permissions_mode'
p893
sI940
S'media_root'
p894
sI941
S'base_location'
p895
sI942
S'endswith'
p896
sI943
S'file_upload_permissions'
p897
sI944
S'file_upload_directory_permissions'
p898
sI945
S'full_path'
p899
sI946
S'dirname'
p900
sI947
S'old_umask'
p901
sI948
S'umask'
p902
sI949
S'isdir'
p903
sI950
S"'temporary_file_path"
p904
sI951
S'temporary_file_path'
p905
sI952
S'0o666'
p906
sI953
S'_file'
p907
sI954
S'bytes'
p908
sI955
S"'wt"
p909
sI956
S'fdopen'
p910
sI957
S'allowed'
p911
sI958
S'empty'
p912
sI959
S'directories'
p913
sI960
S'attempted'
p914
sI961
S'denied'
p915
sI962
S'normpath'
p916
sI963
S'accessible'
p917
sI964
S'via'
p918
sI965
S'getatime'
p919
sI966
S'getctime'
p920
sI967
S'getmtime'
p921
sI968
S'get_storage_class'
p922
sI969
S'import_path'
p923
sI970
S'default_file_storage'
p924
sI971
S'defaultstorage'
p925
sI972
S'_setup'
p926
sI973
S'_wrapped'
p927
sI974
S'default_storage'
p928
sI975
S"'namedtemporaryfile"
p929
sI976
S"'gettempdir"
p930
sI977
S'temporaryfile'
p931
sI978
S"'w+b"
p932
sI979
S'bufsize'
p933
sI980
S'suffix'
p934
sI981
S'prefix'
p935
sI982
S'close_called'
p936
sI983
S'unlink'
p937
sI984
S'__del__'
p938
sI985
S'exc'
p939
sI986
S'namedtemporaryfile'
p940
sI987
S'gettempdir'
p941
sI988
S'temp'
p942
sI989
S"'uploadedfile"
p943
sI990
S"'temporaryuploadedfile"
p944
sI991
S"'inmemoryuploadedfile"
p945
sI992
S"'simpleuploadedfile"
p946
sI993
S'uploadedfile'
p947
sI994
S'content_type'
p948
sI995
S'charset'
p949
sI996
S'content_type_extra'
p950
sI997
S'_get_name'
p951
sI998
S'_name'
p952
sI999
S'_set_name'
p953
sI1000
S'basename'
p954
sI1001
S'255'
p955
sI1002
S'ext'
p956
sI1003
S'temporaryuploadedfile'
p957
sI1004
S'file_upload_temp_dir'
p958
sI1005
S'upload'
p959
sI1006
S'inmemoryuploadedfile'
p960
sI1007
S'field_name'
p961
sI1008
S'simpleuploadedfile'
p962
sI1009
S"'text/plain"
p963
sI1010
S'classmethod'
p964
sI1011
S'from_dict'
p965
sI1012
S'cls'
p966
sI1013
S'file_dict'
p967
sI1014
S"'filename"
p968
sI1015
S"'content"
p969
sI1016
S"'content-type"
p970
sI1017
S"'uploadfileexception"
p971
sI1018
S"'stopupload"
p972
sI1019
S"'skipfile"
p973
sI1020
S"'fileuploadhandler"
p974
sI1021
S"'temporaryfileuploadhandler"
p975
sI1022
S"'memoryfileuploadhandler"
p976
sI1023
S"'load_handler"
p977
sI1024
S"'stopfuturehandlers"
p978
sI1025
S'uploadfileexception'
p979
sI1026
S'stopupload'
p980
sI1027
S'connection_reset'
p981
sI1028
S'halt'
p982
sI1029
S'current'
p983
sI1030
S'consume'
p984
sI1031
S'skipfile'
p985
sI1032
S'stopfuturehandlers'
p986
sI1033
S'fileuploadhandler'
p987
sI1034
S'content_length'
p988
sI1035
S'handle_raw_input'
p989
sI1036
S'input_data'
p990
sI1037
S'boundary'
p991
sI1038
S'new_file'
p992
sI1039
S'receive_data_chunk'
p993
sI1040
S'raw_data'
p994
sI1041
S'start'
p995
sI1042
S'file_complete'
p996
sI1043
S'file_size'
p997
sI1044
S'upload_complete'
p998
sI1045
S'temporaryfileuploadhandler'
p999
sI1046
S'memoryfileuploadhandler'
p1000
sI1047
S'file_upload_max_memory_size'
p1001
sI1048
S'activated'
p1002
sI1049
S'load_handler'
p1003
sI1050
S'flush'
p1004
sI1051
S'isatty'
p1005
sI1052
S'newlines'
p1006
sI1053
S'readinto'
p1007
sI1054
S'readline'
p1008
sI1055
S'readlines'
p1009
sI1056
S'softspace'
p1010
sI1057
S'truncate'
p1011
sI1058
S'writelines'
p1012
sI1059
S'xreadlines'
p1013
sI1060
S'iter'
p1014
sI1061
S'logging'
p1015
sI1062
S'sys'
p1016
sI1063
S'urlresolvers'
p1017
sI1064
S'views'
p1018
sI1065
S'logger'
p1019
sI1066
S'getlogger'
p1020
sI1067
S'basehandler'
p1021
sI1068
S'response_fixes'
p1022
sI1069
S'fix_location_header'
p1023
sI1070
S'conditional_content_removal'
p1024
sI1071
S'_request_middleware'
p1025
sI1072
S'_view_middleware'
p1026
sI1073
S'_template_response_middleware'
p1027
sI1074
S'_response_middleware'
p1028
sI1075
S'_exception_middleware'
p1029
sI1076
S'load_middleware'
p1030
sI1077
S'request_middleware'
p1031
sI1078
S'middleware_path'
p1032
sI1079
S'mw_class'
p1033
sI1080
S'mw_instance'
p1034
sI1081
S'continue'
p1035
sI1082
S"'process_request"
p1036
sI1083
S'process_request'
p1037
sI1084
S"'process_view"
p1038
sI1085
S'process_view'
p1039
sI1086
S"'process_template_response"
p1040
sI1087
S'process_template_response'
p1041
sI1088
S"'process_response"
p1042
sI1089
S'process_response'
p1043
sI1090
S"'process_exception"
p1044
sI1091
S'process_exception'
p1045
sI1092
S'make_view_atomic'
p1046
sI1093
S'view'
p1047
sI1094
S'non_atomic_requests'
p1048
sI1095
S"'_non_atomic_requests"
p1049
sI1096
S'settings_dict'
p1050
sI1097
S"'atomic_requests"
p1051
sI1098
S'get_exception_response'
p1052
sI1099
S'resolver'
p1053
sI1100
S'status_code'
p1054
sI1101
S'callback'
p1055
sI1102
S'param_dict'
p1056
sI1103
S'resolve_error_handler'
p1057
sI1104
S'response'
p1058
sI1105
S'got_request_exception'
p1059
sI1106
S'send'
p1060
sI1107
S'handle_uncaught_exception'
p1061
sI1108
S'exc_info'
p1062
sI1109
S'get_response'
p1063
sI1110
S'urlconf'
p1064
sI1111
S'root_urlconf'
p1065
sI1112
S'set_urlconf'
p1066
sI1113
S'regexurlresolver'
p1067
sI1114
S"r'^/"
p1068
sI1115
S'middleware_method'
p1069
sI1116
S"'urlconf"
p1070
sI1117
S'resolver_match'
p1071
sI1118
S'resolve'
p1072
sI1119
S'path_info'
p1073
sI1120
S'callback_args'
p1074
sI1121
S'callback_kwargs'
p1075
sI1122
S'wrapped_callback'
p1076
sI1123
S'view_name'
p1077
sI1124
S'__call__'
p1078
sI1125
S'httpresponse'
p1079
sI1126
S'returned'
p1080
sI1127
S'instead'
p1081
sI1128
S"'render"
p1082
sI1129
S'render'
p1083
sI1130
S'__self__'
p1084
sI1131
S'http404'
p1085
sI1132
S"'not"
p1086
sI1133
S'extra'
p1087
sI1134
S"'status_code"
p1088
sI1135
S'404'
p1089
sI1136
S'technical_404_response'
p1090
sI1137
S"'forbidden"
p1091
sI1138
S'permission'
p1092
sI1139
S'403'
p1093
sI1140
S'security_logger'
p1094
sI1141
S'security'
p1095
sI1142
S'400'
p1096
sI1143
S'technical_500_response'
p1097
sI1144
S'systemexit'
p1098
sI1145
S'apply_response_fixes'
p1099
sI1146
S'_closable_objects'
p1100
sI1147
S'debug_propagate_exceptions'
p1101
sI1148
S'500'
p1102
sI1149
S'urlconf_module'
p1103
sI1150
S'reraise'
p1104
sI1151
S'func'
p1105
sI1152
S'cgi'
p1106
sI1153
S'codecs'
p1107
sI1154
S'handlers'
p1108
sI1155
S'set_script_prefix'
p1109
sI1156
S'datastructures'
p1110
sI1157
S'reason_phrases'
p1111
sI1158
S'status_code_text'
p1112
sI1159
S'iso_8859_1'
p1113
sI1160
S'utf_8'
p1114
sI1161
S"'iso-8859-1"
p1115
sI1162
S"'utf-8"
p1116
sI1163
S'limitedstream'
p1117
sI1164
S'stream'
p1118
sI1165
S'limit'
p1119
sI1166
S'buf_size'
p1120
sI1167
S'remaining'
p1121
sI1168
S'buffer'
p1122
sI1169
S'_read_limited'
p1123
sI1170
S'-='
p1124
sI1171
S'sio'
p1125
sI1172
S'wsgirequest'
p1126
sI1173
S'httprequest'
p1127
sI1174
S'environ'
p1128
sI1175
S'script_name'
p1129
sI1176
S'get_script_name'
p1130
sI1177
S'get_path_info'
p1131
sI1178
S's/'
p1132
sI1179
S'rstrip'
p1133
sI1180
S"'path_info"
p1134
sI1181
S"'script_name"
p1135
sI1182
S"'request_method"
p1136
sI1183
S'upper'
p1137
sI1184
S'content_params'
p1138
sI1185
S'parse_header'
p1139
sI1186
S"'content_type"
p1140
sI1187
S"'charset"
p1141
sI1188
S'lookup'
p1142
sI1189
S'lookuperror'
p1143
sI1190
S'_post_parse_error'
p1144
sI1191
S"'content_length"
p1145
sI1192
S'_stream'
p1146
sI1193
S"'wsgi"
p1147
sI1194
S'input'
p1148
sI1195
S'_read_started'
p1149
sI1196
S'_get_scheme'
p1150
sI1197
S'url_scheme'
p1151
sI1198
S'_get_request'
p1152
sI1199
S"'`request"
p1153
sI1200
S'request`'
p1154
sI1201
S'use'
p1155
sI1202
S'`request'
p1156
sI1203
S'get`'
p1157
sI1204
S'post`'
p1158
sI1205
S"'_request"
p1159
sI1206
S'_request'
p1160
sI1207
S'mergedict'
p1161
sI1208
S'post'
p1162
sI1209
S'raw_query_string'
p1163
sI1210
S'get_bytes_from_wsgi'
p1164
sI1211
S"'query_string"
p1165
sI1212
S'querydict'
p1166
sI1213
S'_encoding'
p1167
sI1214
S'_get_post'
p1168
sI1215
S"'_post"
p1169
sI1216
S'_load_post_and_files'
p1170
sI1217
S'_post'
p1171
sI1218
S'_set_post'
p1172
sI1219
S'cookies'
p1173
sI1220
S'raw_cookie'
p1174
sI1221
S'get_str_from_wsgi'
p1175
sI1222
S"'http_cookie"
p1176
sI1223
S'parse_cookie'
p1177
sI1224
S'_get_files'
p1178
sI1225
S"'_files"
p1179
sI1226
S'_files'
p1180
sI1227
S'wsgihandler'
p1181
sI1228
S'initlock'
p1182
sI1229
S'request_class'
p1183
sI1230
S'start_response'
p1184
sI1231
S'request_started'
p1185
sI1232
S'unicodedecodeerror'
p1186
sI1233
S"'bad"
p1187
sI1234
S'httpresponsebadrequest'
p1188
sI1235
S'_handler_class'
p1189
sI1236
S'status'
p1190
sI1237
S'reason_phrase'
p1191
sI1238
S'response_headers'
p1192
sI1239
S'c'
sI1240
S"'set-cookie"
p1193
sI1241
S'output'
p1194
sI1242
S'header'
p1195
sI1243
S'force_script_name'
p1196
sI1244
S'script_url'
p1197
sI1245
S"'script_url"
p1198
sI1246
S"'redirect_url"
p1199
sI1247
S'py2'
p1200
sI1248
S'encode'
p1201
sI1249
S'mail'
p1202
sI1250
S'cacheddnsname'
p1203
sI1251
S'dns_name'
p1204
sI1252
S'emailmessage'
p1205
sI1253
S'emailmultialternatives'
p1206
sI1254
S'safemimetext'
p1207
sI1255
S'safemimemultipart'
p1208
sI1256
S'default_attachment_mime_type'
p1209
sI1257
S'make_msgid'
p1210
sI1258
S'badheadererror'
p1211
sI1259
S'forbid_multi_line_headers'
p1212
sI1260
S"'cacheddnsname"
p1213
sI1261
S"'dns_name"
p1214
sI1262
S"'emailmessage"
p1215
sI1263
S"'emailmultialternatives"
p1216
sI1264
S"'safemimetext"
p1217
sI1265
S"'safemimemultipart"
p1218
sI1266
S"'default_attachment_mime_type"
p1219
sI1267
S"'make_msgid"
p1220
sI1268
S"'badheadererror"
p1221
sI1269
S"'forbid_multi_line_headers"
p1222
sI1270
S"'get_connection"
p1223
sI1271
S"'send_mail"
p1224
sI1272
S"'send_mass_mail"
p1225
sI1273
S"'mail_admins"
p1226
sI1274
S"'mail_managers"
p1227
sI1275
S'get_connection'
p1228
sI1276
S'fail_silently'
p1229
sI1277
S'kwds'
p1230
sI1278
S'klass'
p1231
sI1279
S'email_backend'
p1232
sI1280
S'send_mail'
p1233
sI1281
S'subject'
p1234
sI1282
S'from_email'
p1235
sI1283
S'recipient_list'
p1236
sI1284
S'auth_user'
p1237
sI1285
S'auth_password'
p1238
sI1286
S'html_message'
p1239
sI1287
S'username'
p1240
sI1288
S'password'
p1241
sI1289
S'attach_alternative'
p1242
sI1290
S"'text/html"
p1243
sI1291
S'send_mass_mail'
p1244
sI1292
S'datatuple'
p1245
sI1293
S'recipient'
p1246
sI1294
S'send_messages'
p1247
sI1295
S'mail_admins'
p1248
sI1296
S'admins'
p1249
sI1297
S'email_subject_prefix'
p1250
sI1298
S'server_email'
p1251
sI1299
S'mail_managers'
p1252
sI1300
S'managers'
p1253
sI1301
S'baseemailbackend'
p1254
sI1302
S'traceback'
p1255
sI1303
S'email_messages'
p1256
sI1304
S'override'
p1257
sI1305
S'emailbackend'
p1258
sI1306
S"'stream"
p1259
sI1307
S'stdout'
p1260
sI1308
S'rlock'
p1261
sI1309
S'write_message'
p1262
sI1310
S'msg_data'
p1263
sI1311
S'as_bytes'
p1264
sI1312
S'get_charset'
p1265
sI1313
S'get_output_charset'
p1266
sI1314
S's\\n'
p1267
sI1315
S"'-"
p1268
sI1316
S'79'
p1269
sI1317
S"'\\n"
p1270
sI1318
S'msg_count'
p1271
sI1319
S'stream_created'
p1272
sI1320
S'console'
p1273
sI1321
S'consoleemailbackend'
p1274
sI1322
S'_fname'
p1275
sI1323
S"'file_path"
p1276
sI1324
S'file_path'
p1277
sI1325
S"'email_file_path"
p1278
sI1326
S"'path"
p1279
sI1327
S'saving'
p1280
sI1328
S'emails'
p1281
sI1329
S'invalid'
p1282
sI1330
S'email'
p1283
sI1331
S'but'
p1284
sI1332
S'err'
p1285
sI1333
S"'could"
p1286
sI1334
S'create'
p1287
sI1335
S'w_ok'
p1288
sI1336
S"b'-"
p1289
sI1337
S'_get_filename'
p1290
sI1338
S'timestamp'
p1291
sI1339
S'strftime'
p1292
sI1340
S'y'
sI1341
S'd-'
p1293
sI1342
S'h'
sI1343
S's-'
p1294
sI1344
S'log'
p1295
sI1345
S'abs'
p1296
sI1346
S"'ab"
p1297
sI1347
S"'outbox"
p1298
sI1348
S'outbox'
p1299
sI1349
S'smtplib'
p1300
sI1350
S'ssl'
p1301
sI1351
S'sanitize_address'
p1302
sI1352
S'port'
p1303
sI1353
S'use_tls'
p1304
sI1354
S'use_ssl'
p1305
sI1355
S'email_host'
p1306
sI1356
S'email_port'
p1307
sI1357
S'email_host_user'
p1308
sI1358
S'email_host_password'
p1309
sI1359
S'email_use_tls'
p1310
sI1360
S'email_use_ssl'
p1311
sI1361
S'email_use_tls/email_use_ssl'
p1312
sI1362
S'mutually'
p1313
sI1363
S'exclusive'
p1314
sI1364
S'so'
p1315
sI1365
S'only'
p1316
sI1366
S'one'
p1317
sI1367
S'those'
p1318
sI1368
S'connection_class'
p1319
sI1369
S'smtp_ssl'
p1320
sI1370
S'smtp'
p1321
sI1371
S'connection_params'
p1322
sI1372
S"'local_hostname"
p1323
sI1373
S'get_fqdn'
p1324
sI1374
S'ehlo'
p1325
sI1375
S'starttls'
p1326
sI1376
S'login'
p1327
sI1377
S'smtpexception'
p1328
sI1378
S'quit'
p1329
sI1379
S'sslerror'
p1330
sI1380
S'smtpserverdisconnected'
p1331
sI1381
S'new_conn_created'
p1332
sI1382
S'num_sent'
p1333
sI1383
S'sent'
p1334
sI1384
S'_send'
p1335
sI1385
S'email_message'
p1336
sI1386
S'recipients'
p1337
sI1387
S'addr'
p1338
sI1388
S'sendmail'
p1339
sI1389
S'mimetypes'
p1340
sI1390
S'encoders'
p1341
sI1391
S'message_from_string'
p1342
sI1392
S'generator'
p1343
sI1393
S'mime'
p1344
sI1394
S'mimetext'
p1345
sI1395
S'multipart'
p1346
sI1396
S'mimemultipart'
p1347
sI1397
S'mimebase'
p1348
sI1398
S'mimemessage'
p1349
sI1399
S'formatdate'
p1350
sI1400
S'getaddresses'
p1351
sI1401
S'formataddr'
p1352
sI1402
S'parseaddr'
p1353
sI1403
S'utf8_charset'
p1354
sI1404
S'body_encoding'
p1355
sI1405
S"'application/octet-stream"
p1356
sI1406
S'idstring'
p1357
sI1407
S'timeval'
p1358
sI1408
S'utcdate'
p1359
sI1409
S'gmtime'
p1360
sI1410
S'pid'
p1361
sI1411
S'getpid'
p1362
sI1412
S'randint'
p1363
sI1413
S'randrange'
p1364
sI1414
S'100000'
p1365
sI1415
S'idhost'
p1366
sI1416
S'msgid'
p1367
sI1417
S'address_headers'
p1368
sI1418
S"'from"
p1369
sI1419
S"'sender"
p1370
sI1420
S"'reply-to"
p1371
sI1421
S"'to"
p1372
sI1422
S"'cc"
p1373
sI1423
S"'bcc"
p1374
sI1424
S"'resent-from"
p1375
sI1425
S"'resent-sender"
p1376
sI1426
S"'resent-to"
p1377
sI1427
S"'resent-cc"
p1378
sI1428
S"'resent-bcc"
p1379
sI1429
S'default_charset'
p1380
sI1430
S"'\\r"
p1381
sI1431
S'ca'
p1382
sI1432
S'contain'
p1383
sI1433
S'got'
p1384
sI1434
S"'ascii"
p1385
sI1435
S'unicodeencodeerror'
p1386
sI1436
S'lower'
p1387
sI1437
S"'subject"
p1388
sI1438
S'nm'
p1389
sI1439
S'localpart'
p1390
sI1440
S'domain'
p1391
sI1441
S"'idna"
p1392
sI1442
S'mimemixin'
p1393
sI1443
S'as_string'
p1394
sI1444
S'unixfrom'
p1395
sI1445
S'fp'
p1396
sI1446
S'g'
sI1447
S'mangle_from_'
p1397
sI1448
S'flatten'
p1398
sI1449
S'getvalue'
p1399
sI1450
S'bytesgenerator'
p1400
sI1451
S'safemimemessage'
p1401
sI1452
S'__setitem__'
p1402
sI1453
S'subtype'
p1403
sI1454
S"'content-transfer-encoding"
p1404
sI1455
S'version_info'
p1405
sI1456
S'4'
sI1457
S'payload'
p1406
sI1458
S'output_charset'
p1407
sI1459
S'_payload'
p1408
sI1460
S"'surrogateescape"
p1409
sI1461
S'set_charset'
p1410
sI1462
S'set_payload'
p1411
sI1463
S'replace_header'
p1412
sI1464
S"'text/"
p1413
sI1465
S'_subtype'
p1414
sI1466
S"'mixed"
p1415
sI1467
S'_subparts'
p1416
sI1468
S'_params'
p1417
sI1469
S'content_subtype'
p1418
sI1470
S"'plain"
p1419
sI1471
S'mixed_subtype'
p1420
sI1472
S'body'
p1421
sI1473
S'bcc'
p1422
sI1474
S'attachments'
p1423
sI1475
S'headers'
p1424
sI1476
S'cc'
p1425
sI1477
S'tuple'
p1426
sI1478
S'default_from_email'
p1427
sI1479
S'extra_headers'
p1428
sI1480
S'_create_message'
p1429
sI1481
S'header_names'
p1430
sI1482
S"'date"
p1431
sI1483
S"'message-id"
p1432
sI1484
S'attach'
p1433
sI1485
S'filename'
p1434
sI1486
S'mimetype'
p1435
sI1487
S'attach_file'
p1436
sI1488
S'_create_attachments'
p1437
sI1489
S'body_msg'
p1438
sI1490
S'attachment'
p1439
sI1491
S'_create_attachment'
p1440
sI1492
S'_create_mime_attachment'
p1441
sI1493
S'basetype'
p1442
sI1494
S"'text"
p1443
sI1495
S"'rfc822"
p1444
sI1496
S'encode_base64'
p1445
sI1497
S'guess_type'
p1446
sI1498
S'add_header'
p1447
sI1499
S"'content-disposition"
p1448
sI1500
S"'attachment"
p1449
sI1501
S'alternative_subtype'
p1450
sI1502
S"'alternative"
p1451
sI1503
S'alternatives'
p1452
sI1504
S'_create_alternatives'
p1453
sI1505
S'alternative'
p1454
sI1506
S'socket'
p1455
sI1507
S"'_fqdn"
p1456
sI1508
S'_fqdn'
p1457
sI1509
S'getfqdn'
p1458
sI1510
S'collections'
p1459
sI1511
S'importlib'
p1460
sI1512
S'import_module'
p1461
sI1513
S'management'
p1462
sI1514
S'basecommand'
p1463
sI1515
S'commanderror'
p1464
sI1516
S'commandparser'
p1465
sI1517
S'handle_default_options'
p1466
sI1518
S'color'
p1467
sI1519
S'color_style'
p1468
sI1520
S'lru_cache'
p1469
sI1521
S'find_commands'
p1470
sI1522
S'management_dir'
p1471
sI1523
S'command_dir'
p1472
sI1524
S"'commands"
p1473
sI1525
S"'_"
p1474
sI1526
S'py'
p1475
sI1527
S'load_command_class'
p1476
sI1528
S'app_name'
p1477
sI1529
S'module'
p1478
sI1530
S'commands'
p1479
sI1531
S'command'
p1480
sI1532
S'maxsize'
p1481
sI1533
S'get_commands'
p1482
sI1534
S'__path__'
p1483
sI1535
S'configured'
p1484
sI1536
S'reversed'
p1485
sI1537
S'get_app_configs'
p1486
sI1538
S"'management"
p1487
sI1539
S'call_command'
p1488
sI1540
S'unknown'
p1489
sI1541
S'create_parser'
p1490
sI1542
S'use_argparse'
p1491
sI1543
S'parse_args'
p1492
sI1544
S'_get_kwargs'
p1493
sI1545
S'__dict__'
p1494
sI1546
S'managementutility'
p1495
sI1547
S'argv'
p1496
sI1548
S'prog_name'
p1497
sI1549
S'settings_exception'
p1498
sI1550
S'main_help_text'
p1499
sI1551
S'commands_only'
p1500
sI1552
S'usage'
p1501
sI1553
S'sorted'
p1502
sI1554
S'help'
p1503
sI1555
S'subcommand'
p1504
sI1556
S'on'
p1505
sI1557
S'specific'
p1506
sI1558
S'available'
p1507
sI1559
S'subcommands'
p1508
sI1560
S'commands_dict'
p1509
sI1561
S'defaultdict'
p1510
sI1562
S'iteritems'
p1511
sI1563
S'rpartition'
p1512
sI1564
S'style'
p1513
sI1565
S'notice'
p1514
sI1566
S'note'
p1515
sI1567
S'listed'
p1516
sI1568
S'properly'
p1517
sI1569
S'fetch_command'
p1518
sI1570
S'installed_apps'
p1519
sI1571
S'stderr'
p1520
sI1572
S'r\\ntype'
p1521
sI1573
S'\\n'
p1522
sI1574
S'exit'
p1523
sI1575
S'autocomplete'
p1524
sI1576
S"'django_auto_complete"
p1525
sI1577
S'cwords'
p1526
sI1578
S"'comp_words"
p1527
sI1579
S'cword'
p1528
sI1580
S"'comp_cword"
p1529
sI1581
S'curr'
p1530
sI1582
S'indexerror'
p1531
sI1583
S"'help"
p1532
sI1584
S'--'
p1533
sI1585
S'print'
p1534
sI1586
S'filter'
p1535
sI1587
S'subcommand_cls'
p1536
sI1588
S"'runfcgi"
p1537
sI1589
S'servers'
p1538
sI1590
S'fastcgi'
p1539
sI1591
S'fastcgi_options'
p1540
sI1592
S"'dumpdata"
p1541
sI1593
S"'sql"
p1542
sI1594
S"'sqlall"
p1543
sI1595
S"'sqlclear"
p1544
sI1596
S"'sqlcustom"
p1545
sI1597
S"'sqlindexes"
p1546
sI1598
S"'sqlsequencereset"
p1547
sI1599
S"'test"
p1548
sI1600
S'label'
p1549
sI1601
S's_opt'
p1550
sI1602
S'option_strings'
p1551
sI1603
S'nargs'
p1552
sI1604
S'_actions'
p1553
sI1605
S'get_opt_string'
p1554
sI1606
S'option_list'
p1555
sI1607
S'prev_opts'
p1556
sI1608
S'opt'
p1557
sI1609
S'option'
p1558
sI1610
S'opt_label'
p1559
sI1611
S'prog'
p1560
sI1612
S'add_help'
p1561
sI1613
S'add_argument'
p1562
sI1614
S'pythonpath'
p1563
sI1615
S"'args"
p1564
sI1616
S'parse_known_args'
p1565
sI1617
S'no_settings_commands'
p1566
sI1618
S"'-h"
p1567
sI1619
S"'compilemessages"
p1568
sI1620
S"'makemessages"
p1569
sI1621
S"'startapp"
p1570
sI1622
S"'startproject"
p1571
sI1623
S'setup'
p1572
sI1624
S'print_help'
p1573
sI1625
S'get_version'
p1574
sI1626
S'run_from_argv'
p1575
sI1627
S'execute_from_command_line'
p1576
sI1628
S'utility'
p1577
sI1629
S'argparse'
p1578
sI1630
S'argumentparser'
p1579
sI1631
S'optparse'
p1580
sI1632
S'optionparser'
p1581
sI1633
S'no_style'
p1582
sI1634
S'removedindjango20warning'
p1583
sI1635
S'cmd'
p1584
sI1636
S'namespace'
p1585
sI1637
S"'missing_args_message"
p1586
sI1638
S'any'
p1587
sI1639
S'arg'
p1588
sI1640
S'missing_args_message'
p1589
sI1641
S'_called_from_command_line'
p1590
sI1642
S"'django_settings_module"
p1591
sI1643
S'outputwrapper'
p1592
sI1644
S'out'
p1593
sI1645
S'style_func'
p1594
sI1646
S'ending'
p1595
sI1647
S'_out'
p1596
sI1648
S"'isatty"
p1597
sI1649
S'can_import_settings'
p1598
sI1650
S'output_transaction'
p1599
sI1651
S'leave_locale_alone'
p1600
sI1652
S'has_old_option'
p1601
sI1653
S"'requires_model_validation"
p1602
sI1654
S'has_new_option'
p1603
sI1655
S"'requires_system_checks"
p1604
sI1656
S'requires_model_validation'
p1605
sI1657
S"'in"
p1606
sI1658
S'requires_system_checks'
p1607
sI1659
S"'command"
p1608
sI1660
S'defines'
p1609
sI1661
S'both'
p1610
sI1662
S"'and"
p1611
sI1663
S'illegal'
p1612
sI1664
S's\\n\\n'
p1613
sI1665
S'add_option'
p1614
sI1666
S"'-v"
p1615
sI1667
S'verbosity'
p1616
sI1668
S'action'
p1617
sI1669
S"'store"
p1618
sI1670
S'dest'
p1619
sI1671
S"'verbosity"
p1620
sI1672
S"'1"
p1621
sI1673
S"'choice"
p1622
sI1674
S'choices'
p1623
sI1675
S"'0"
p1624
sI1676
S"'2"
p1625
sI1677
S"'3"
p1626
sI1678
S'minimal'
p1627
sI1679
S'normal'
p1628
sI1680
S'verbose'
p1629
sI1681
S'very'
p1630
sI1682
S"'the"
p1631
sI1683
S'python'
p1632
sI1684
S'myproject'
p1633
sI1685
S'main'
p1634
sI1686
S"isn\\'t"
p1635
sI1687
S'provided'
p1636
sI1688
S'django_settings_module'
p1637
sI1689
S'environment'
p1638
sI1690
S'variable'
p1639
sI1691
S"'a"
p1640
sI1692
S'/home/djangoprojects/myproject'
p1641
sI1693
S"'store_true"
p1642
sI1694
S"'raise"
p1643
sI1695
S'no-color'
p1644
sI1696
S"'no_color"
p1645
sI1697
S'do'
p1646
sI1698
S'colorize'
p1647
sI1699
S'add_arguments'
p1648
sI1700
S'cmd_options'
p1649
sI1701
S'vars'
p1650
sI1702
S"'stderr"
p1651
sI1703
S"'stdout"
p1652
sI1704
S'saved_locale'
p1653
sI1705
S'incompatible'
p1654
sI1706
S"'leave_locale_alone"
p1655
sI1707
S"'can_import_settings"
p1656
sI1708
S'activate'
p1657
sI1709
S"'en-us"
p1658
sI1710
S"'skip_validation"
p1659
sI1711
S"'skip_checks"
p1660
sI1712
S'default_db_alias'
p1661
sI1713
S"'database"
p1662
sI1714
S'start_transaction_sql'
p1663
sI1715
S'sql_keyword'
p1664
sI1716
S'end_transaction_sql'
p1665
sI1717
S'validate'
p1666
sI1718
S'display_num_errors'
p1667
sI1719
S'all_issues'
p1668
sI1720
S'visible_issue_count'
p1669
sI1721
S'debugs'
p1670
sI1722
S'infos'
p1671
sI1723
S'criticals'
p1672
sI1724
S'sorted_issues'
p1673
sI1725
S"'criticals"
p1674
sI1726
S"'warnings"
p1675
sI1727
S"'infos"
p1676
sI1728
S"'debugs"
p1677
sI1729
S'issues'
p1678
sI1730
S'group_name'
p1679
sI1731
S'formatted'
p1680
sI1732
S'system'
p1681
sI1733
S'identified'
p1682
sI1734
S'silenced'
p1683
sI1735
S'no'
p1684
sI1736
S'issue'
p1685
sI1737
S'appcommand'
p1686
sI1738
S'enter'
p1687
sI1739
S'at'
p1688
sI1740
S'least'
p1689
sI1741
S'application'
p1690
sI1742
S'metavar'
p1691
sI1743
S"'app_label"
p1692
sI1744
S"'+"
p1693
sI1745
S"'one"
p1694
sI1746
S'app_labels'
p1695
sI1747
S'get_app_config'
p1696
sI1748
S'sure'
p1697
sI1749
S'correct'
p1698
sI1750
S'app_output'
p1699
sI1751
S'handle_app_config'
p1700
sI1752
S'handle_app'
p1701
sI1753
S'subclasses'
p1702
sI1754
S'superseded'
p1703
sI1755
S'by'
p1704
sI1756
S'models_module'
p1705
sI1757
S'legacy'
p1706
sI1758
S'because'
p1707
sI1759
S'labelcommand'
p1708
sI1760
S"'label"
p1709
sI1761
S'labels'
p1710
sI1762
S'label_output'
p1711
sI1763
S'handle_label'
p1712
sI1764
S'noargscommand'
p1713
sI1765
S'takes'
p1714
sI1766
S'arguments'
p1715
sI1767
S'accept'
p1716
sI1768
S'handle_noargs'
p1717
sI1769
S'termcolors'
p1718
sI1770
S'supports_color'
p1719
sI1771
S'plat'
p1720
sI1772
S'platform'
p1721
sI1773
S'supported_platform'
p1722
sI1774
S"'pocket"
p1723
sI1775
S'pc'
p1724
sI1776
S"'win32"
p1725
sI1777
S"'ansicon"
p1726
sI1778
S'is_a_tty'
p1727
sI1779
S'django_colors'
p1728
sI1780
S"'django_colors"
p1729
sI1781
S'color_settings'
p1730
sI1782
S'parse_color_setting'
p1731
sI1783
S'dummy'
p1732
sI1784
S'role'
p1733
sI1785
S'palettes'
p1734
sI1786
S'nocolor_palette'
p1735
sI1787
S'format'
p1736
sI1788
S'make_style'
p1737
sI1789
S'error_output'
p1738
sI1790
S'entire'
p1739
sI1791
S'potential'
p1740
sI1792
S'problems'
p1741
sI1793
S"'-t"
p1742
sI1794
S"'append"
p1743
sI1795
S"'run"
p1744
sI1796
S'labeled'
p1745
sI1797
S'list-tags'
p1746
sI1798
S"'list_tags"
p1747
sI1799
S"'list"
p1748
sI1800
S'invalid_tag'
p1749
sI1801
S"'there"
p1750
sI1802
S'find_command'
p1751
sI1803
S'popen_wrapper'
p1752
sI1804
S'npath'
p1753
sI1805
S'upath'
p1754
sI1806
S'has_bom'
p1755
sI1807
S'fn'
p1756
sI1808
S"b'\\xef\\xbb\\xbf"
p1757
sI1809
S'bom_utf16_le'
p1758
sI1810
S'bom_utf16_be'
p1759
sI1811
S'is_writable'
p1760
sI1812
S"'compiles"
p1761
sI1813
S'po'
p1762
sI1814
S'mo'
p1763
sI1815
S'builtin'
p1764
sI1816
S'gettext'
p1765
sI1817
S'program'
p1766
sI1818
S"'msgfmt"
p1767
sI1819
S'program_options'
p1768
sI1820
S'check-format'
p1769
sI1821
S'locale'
p1770
sI1822
S"'-l"
p1771
sI1823
S"'locale"
p1772
sI1824
S'process'
p1773
sI1825
S'de_at'
p1774
sI1826
S"'can"
p1775
sI1827
S'multiple'
p1776
sI1828
S'times'
p1777
sI1829
S'exclude'
p1778
sI1830
S"'-x"
p1779
sI1831
S"'exclude"
p1780
sI1832
S"'locales"
p1781
sI1833
S'make'
p1782
sI1834
S'gnu'
p1783
sI1835
S'tools'
p1784
sI1836
S'15'
p1785
sI1837
S'newer'
p1786
sI1838
S'basedirs'
p1787
sI1839
S"'conf"
p1788
sI1840
S'locale_paths'
p1789
sI1841
S'script'
p1790
sI1842
S'run'
p1791
sI1843
S'git'
p1792
sI1844
S'checkout'
p1793
sI1845
S'tree'
p1794
sI1846
S'specified'
p1795
sI1847
S'all_locales'
p1796
sI1848
S'basedir'
p1797
sI1849
S'locale_dirs'
p1798
sI1850
S's/*'
p1799
sI1851
S'locales'
p1800
sI1852
S'dirs'
p1801
sI1853
S"'lc_messages"
p1802
sI1854
S'locations'
p1803
sI1855
S'ldir'
p1804
sI1856
S'dirpath'
p1805
sI1857
S'dirnames'
p1806
sI1858
S'filenames'
p1807
sI1859
S'walk'
p1808
sI1860
S'compile_messages'
p1809
sI1861
S"'processing"
p1810
sI1862
S'po_path'
p1811
sI1863
S'bom'
p1812
sI1864
S'byte'
p1813
sI1865
S'order'
p1814
sI1866
S'mark'
p1815
sI1867
S'supports'
p1816
sI1868
S'encoded'
p1817
sI1869
S'utf-8'
p1818
sI1870
S'without'
p1819
sI1871
S'base_path'
p1820
sI1872
S'under'
p1821
sI1873
S'seemingly'
p1822
sI1874
S'writable'
p1823
sI1875
S'updated/created'
p1824
sI1876
S"'-o"
p1825
sI1877
S'execution'
p1826
sI1878
S'failed'
p1827
sI1879
S'creates'
p1828
sI1880
S'tables'
p1829
sI1881
S'needed'
p1830
sI1882
S'sql'
p1831
sI1883
S"'table_name"
p1832
sI1884
S"'optional"
p1833
sI1885
S'names'
p1834
sI1886
S"'find"
p1835
sI1887
S'database'
p1836
sI1888
S"'nominates"
p1837
sI1889
S'onto'
p1838
sI1890
S"'installed"
p1839
sI1891
S'tablenames'
p1840
sI1892
S'tablename'
p1841
sI1893
S'create_table'
p1842
sI1894
S'cache_alias'
p1843
sI1895
S'allow_migrate'
p1844
sI1896
S'introspection'
p1845
sI1897
S'table_names'
p1846
sI1898
S'fields'
p1847
sI1899
S'charfield'
p1848
sI1900
S"'cache_key"
p1849
sI1901
S'max_length'
p1850
sI1902
S'unique'
p1851
sI1903
S'primary_key'
p1852
sI1904
S'textfield'
p1853
sI1905
S"'value"
p1854
sI1906
S'datetimefield'
p1855
sI1907
S"'expires"
p1856
sI1908
S'db_index'
p1857
sI1909
S'table_output'
p1858
sI1910
S'index_output'
p1859
sI1911
S'qn'
p1860
sI1912
S'field_output'
p1861
sI1913
S'db_type'
p1862
sI1914
S'snull'
p1863
sI1915
S'null'
p1864
sI1916
S'primary'
p1865
sI1917
S'sindex'
p1866
sI1918
S'full_statement'
p1867
sI1919
S'savepoint'
p1868
sI1920
S'can_rollback_ddl'
p1869
sI1921
S'curs'
p1870
sI1922
S'\\nthe'
p1871
sI1923
S'statement'
p1872
sI1924
S'runs'
p1873
sI1925
S'command-line'
p1874
sI1926
S"'open"
p1875
sI1927
S'shell'
p1876
sI1928
S'runshell'
p1877
sI1929
S"'you"
p1878
sI1930
S'appear'
p1879
sI1931
S'executable_name'
p1880
sI1932
S'module_to_dict'
p1881
sI1933
S'omittable'
p1882
sI1934
S"'all"
p1883
sI1935
S"'display"
p1884
sI1936
S'regardless'
p1885
sI1937
S'their'
p1886
sI1938
S'prefixed'
p1887
sI1939
S'global_settings'
p1888
sI1940
S'user_settings'
p1889
sI1941
S'default_settings'
p1890
sI1942
S'ordereddict'
p1891
sI1943
S'serializers'
p1892
sI1944
S'contents'
p1893
sI1945
S'fixture'
p1894
sI1946
S'each'
p1895
sI1947
S'manager'
p1896
sI1948
S'unless'
p1897
sI1949
S'modelname'
p1898
sI1950
S"'restricts"
p1899
sI1951
S'dumped'
p1900
sI1952
S"'json"
p1901
sI1953
S"'format"
p1902
sI1954
S"'specifies"
p1903
sI1955
S'serialization'
p1904
sI1956
S'fixtures'
p1905
sI1957
S'indent'
p1906
sI1958
S"'indent"
p1907
sI1959
S'when'
p1908
sI1960
S'pretty-printing'
p1909
sI1961
S'dump'
p1910
sI1962
S"'defaults"
p1911
sI1963
S"'-e"
p1912
sI1964
S"'an"
p1913
sI1965
S'apps/models'
p1914
sI1966
S"'-n"
p1915
sI1967
S'natural'
p1916
sI1968
S"'use_natural_keys"
p1917
sI1969
S"'use"
p1918
sI1970
S'they'
p1919
sI1971
S'natural-foreign'
p1920
sI1972
S"'use_natural_foreign_keys"
p1921
sI1973
S'foreign'
p1922
sI1974
S'natural-primary'
p1923
sI1975
S"'use_natural_primary_keys"
p1924
sI1976
S"'-a"
p1925
sI1977
S"'use_base_manager"
p1926
sI1978
S'including'
p1927
sI1979
S'would'
p1928
sI1980
S'filtered'
p1929
sI1981
S'modified'
p1930
sI1982
S'custom'
p1931
sI1983
S'pks'
p1932
sI1984
S"'primary_keys"
p1933
sI1985
S'objects'
p1934
sI1986
S'accepts'
p1935
sI1987
S'comma'
p1936
sI1988
S'separated'
p1937
sI1989
S'work'
p1938
sI1990
S'specify'
p1939
sI1991
S"'output"
p1940
sI1992
S'written'
p1941
sI1993
S'excludes'
p1942
sI1994
S'show_traceback'
p1943
sI1995
S"'traceback"
p1944
sI1996
S'use_natural_keys'
p1945
sI1997
S'use_natural_foreign_keys'
p1946
sI1998
S'use_natural_primary_keys'
p1947
sI1999
S'use_base_manager'
p1948
sI2000
S'primary_keys'
p1949
sI2001
S'excluded_apps'
p1950
sI2002
S'excluded_models'
p1951
sI2003
S'get_model'
p1952
sI2004
S"'unknown"
p1953
sI2005
S'app_list'
p1954
sI2006
S'model_label'
p1955
sI2007
S'app_list_value'
p1956
sI2008
S'get_public_serializer_formats'
p1957
sI2009
S'get_serializer'
p1958
sI2010
S'serializerdoesnotexist'
p1959
sI2011
S'get_objects'
p1960
sI2012
S'sort_dependencies'
p1961
sI2013
S'_base_manager'
p1962
sI2014
S'_default_manager'
p1963
sI2015
S'queryset'
p1964
sI2016
S'order_by'
p1965
sI2017
S'pk'
p1966
sI2018
S'pk__in'
p1967
sI2019
S'iterator'
p1968
sI2020
S"'w"
p1969
sI2021
S'serialize'
p1970
sI2022
S'model_dependencies'
p1971
sI2023
S'model_list'
p1972
sI2024
S"'natural_key"
p1973
sI2025
S'deps'
p1974
sI2026
S'natural_key'
p1975
sI2027
S"'dependencies"
p1976
sI2028
S'dep'
p1977
sI2029
S'rel'
p1978
sI2030
S'rel_model'
p1979
sI2031
S'many_to_many'
p1980
sI2032
S'through'
p1981
sI2033
S'auto_created'
p1982
sI2034
S'reverse'
p1983
sI2035
S'skipped'
p1984
sI2036
S'candidate'
p1985
sI2037
S'dependencies'
p1986
sI2038
S'serialized'
p1987
sI2039
S'sql_flush'
p1988
sI2040
S'emit_post_migrate_signal'
p1989
sI2041
S"'removes"
p1990
sI2042
S'added'
p1991
sI2043
S'during'
p1992
sI2044
S"'migrations"
p1993
sI2045
S'unmigrated'
p1994
sI2046
S'also'
p1995
sI2047
S'initial_data'
p1996
sI2048
S"'fixture"
p1997
sI2049
S'reloaded'
p1998
sI2050
S'achieve'
p1999
sI2051
S'fresh'
p2000
sI2052
S'install'
p2001
sI2053
S'state'
p2002
sI2054
S'noinput'
p2003
sI2055
S"'store_false"
p2004
sI2056
S"'interactive"
p2005
sI2057
S"'tells"
p2006
sI2058
S'prompt'
p2007
sI2059
S'user'
p2008
sI2060
S'kind'
p2009
sI2061
S'no-initial-data'
p2010
sI2062
S"'load_initial_data"
p2011
sI2063
S'initial'
p2012
sI2064
S'after'
p2013
sI2065
S'synchronization'
p2014
sI2066
S'interactive'
p2015
sI2067
S'reset_sequences'
p2016
sI2068
S"'reset_sequences"
p2017
sI2069
S'allow_cascade'
p2018
sI2070
S"'allow_cascade"
p2019
sI2071
S'inhibit_post_migrate'
p2020
sI2072
S"'inhibit_post_migrate"
p2021
sI2073
S'sql_list'
p2022
sI2074
S'only_django'
p2023
sI2075
S'confirm'
p2024
sI2076
S'requested'
p2025
sI2077
S'irreversibly'
p2026
sI2078
S'destroy'
p2027
sI2079
S'currently'
p2028
sI2080
S'want'
p2029
sI2081
S"'yes"
p2030
sI2082
S"'no"
p2031
sI2083
S'cancel'
p2032
sI2084
S'new_msg'
p2033
sI2085
S'flushed'
p2034
sI2086
S'possible'
p2035
sI2087
S'reasons'
p2036
sI2088
S'correctly'
p2037
sI2089
S'look'
p2038
sI2090
S"'django-admin"
p2039
sI2091
S'sqlflush'
p2040
sI2092
S'able'
p2041
sI2093
S'full'
p2042
sI2094
S'emit_post_migrate'
p2043
sI2095
S"'loaddata"
p2044
sI2096
S"'initial_data"
p2045
sI2097
S'cancelled'
p2046
sI2098
S'staticmethod'
p2047
sI2099
S'all_models'
p2048
sI2100
S'get_migratable_models'
p2049
sI2101
S'include_auto_created'
p2050
sI2102
S'keyword'
p2051
sI2103
S're'
p2052
sI2104
S'introspects'
p2053
sI2105
S'outputs'
p2054
sI2106
S'db_module'
p2055
sI2107
S"'introspect"
p2056
sI2108
S'handle_inspection'
p2057
sI2109
S'inspection'
p2058
sI2110
S'supported'
p2059
sI2111
S'selected'
p2060
sI2112
S'table_name_filter'
p2061
sI2113
S"'table_name_filter"
p2062
sI2114
S'table2model'
p2063
sI2115
S'table_name'
p2064
sI2116
S'sub'
p2065
sI2117
S'^a-za-z0-9'
p2066
sI2118
S'title'
p2067
sI2119
S'strip_prefix'
p2068
sI2120
S'u'
sI2121
S'auto-generated'
p2069
sI2122
S"'ll"
p2070
sI2123
S'following'
p2071
sI2124
S'manually'
p2072
sI2125
S'clean'
p2073
sI2126
S'up'
p2074
sI2127
S'rearrange'
p2075
sI2128
S'`managed'
p2076
sI2129
S'false`'
p2077
sI2130
S'lines'
p2078
sI2131
S'wish'
p2079
sI2132
S'allow'
p2080
sI2133
S'modify'
p2081
sI2134
S'feel'
p2082
sI2135
S'free'
p2083
sI2136
S'sqlcustom'
p2084
sI2137
S'known_models'
p2085
sI2138
S"'class"
p2086
sI2139
S'relations'
p2087
sI2140
S'get_relations'
p2088
sI2141
S'indexes'
p2089
sI2142
S'get_indexes'
p2090
sI2143
S'used_column_names'
p2091
sI2144
S'get_table_description'
p2092
sI2145
S'comment_notes'
p2093
sI2146
S'extra_params'
p2094
sI2147
S'column_name'
p2095
sI2148
S'is_relation'
p2096
sI2149
S'att_name'
p2097
sI2150
S'notes'
p2098
sI2151
S'normalize_col_name'
p2099
sI2152
S"'primary_key"
p2100
sI2153
S"'unique"
p2101
sI2154
S'rel_to'
p2102
sI2155
S'field_type'
p2103
sI2156
S"'foreignkey"
p2104
sI2157
S'foreignkey'
p2105
sI2158
S'field_params'
p2106
sI2159
S'field_notes'
p2107
sI2160
S'get_field_type'
p2108
sI2161
S"'autofield"
p2109
sI2162
S"'integerfield"
p2110
sI2163
S'can_introspect_autofield'
p2111
sI2164
S"'booleanfield"
p2112
sI2165
S"'nullbooleanfield"
p2113
sI2166
S"'blank"
p2114
sI2167
S"'textfield"
p2115
sI2168
S"'charfield"
p2116
sI2169
S"'null"
p2117
sI2170
S'field_desc'
p2118
sI2171
S'meta_line'
p2119
sI2172
S'get_meta'
p2120
sI2173
S'col_name'
p2121
sI2174
S'new_name'
p2122
sI2175
S"'field"
p2123
sI2176
S'made'
p2124
sI2177
S'lowercase'
p2125
sI2178
S"'_id"
p2126
sI2179
S"'db_column"
p2127
sI2180
S'num_repl'
p2128
sI2181
S'subn'
p2129
sI2182
S"r'\\w"
p2130
sI2183
S'unsuitable'
p2131
sI2184
S"'__"
p2132
sI2185
S'contained'
p2133
sI2186
S'started'
p2134
sI2187
S'sfield'
p2135
sI2188
S'ended'
p2136
sI2189
S'iskeyword'
p2137
sI2190
S"'_field"
p2138
sI2191
S'reserved'
p2139
sI2192
S'word'
p2140
sI2193
S'isdigit'
p2141
sI2194
S"'number_"
p2142
sI2195
S'valid'
p2143
sI2196
S'identifier'
p2144
sI2197
S'conflict'
p2145
sI2198
S"'this"
p2146
sI2199
S'guess'
p2147
sI2200
S'new_params'
p2148
sI2201
S"'max_length"
p2149
sI2202
S"'decimalfield"
p2150
sI2203
S"'max_digits"
p2151
sI2204
S'decimal_places'
p2152
sI2205
S'guessed'
p2153
sI2206
S'handles'
p2154
sI2207
S'decimal'
p2155
sI2208
S'float'
p2156
sI2209
S"'decimal_places"
p2157
sI2210
S'gzip'
p2158
sI2211
S'zipfile'
p2159
sI2212
S'integrityerror'
p2160
sI2213
S'product'
p2161
sI2214
S'bz2'
p2162
sI2215
S'has_bz2'
p2163
sI2216
S"'installs"
p2164
sI2217
S'named'
p2165
sI2218
S'please'
p2166
sI2219
S"'fixtures"
p2167
sI2220
S"'only"
p2168
sI2221
S'ignorenonexistent'
p2169
sI2222
S"'-i"
p2170
sI2223
S"'ignore"
p2171
sI2224
S"'ignores"
p2172
sI2225
S"'currently"
p2173
sI2226
S'fixture_labels'
p2174
sI2227
S'ignore'
p2175
sI2228
S'hide_empty'
p2176
sI2229
S"'hide_empty"
p2177
sI2230
S'loaddata'
p2178
sI2231
S'get_autocommit'
p2179
sI2232
S'fixture_count'
p2180
sI2233
S'loaded_object_count'
p2181
sI2234
S'fixture_object_count'
p2182
sI2235
S'serialization_formats'
p2183
sI2236
S'compression_formats'
p2184
sI2237
S"'gz"
p2185
sI2238
S'gzipfile'
p2186
sI2239
S"'zip"
p2187
sI2240
S'singlezipreader'
p2188
sI2241
S"'r"
p2189
sI2242
S"'bz2"
p2190
sI2243
S'bz2file'
p2191
sI2244
S'constraint_checks_disabled'
p2192
sI2245
S'fixture_label'
p2193
sI2246
S'load_label'
p2194
sI2247
S'check_constraints'
p2195
sI2248
S'problem'
p2196
sI2249
S'installing'
p2197
sI2250
S'sequence_sql'
p2198
sI2251
S'sequence_reset_sql'
p2199
sI2252
S'resetting'
p2200
sI2253
S'sequences\\n'
p2201
sI2254
S'fixture_file'
p2202
sI2255
S'fixture_dir'
p2203
sI2256
S'fixture_name'
p2204
sI2257
S'find_fixtures'
p2205
sI2258
S'ser_fmt'
p2206
sI2259
S'cmp_fmt'
p2207
sI2260
S'parse_name'
p2208
sI2261
S'open_method'
p2209
sI2262
S'objects_in_fixture'
p2210
sI2263
S'loaded_objects_in_fixture'
p2211
sI2264
S'humanize'
p2212
sI2265
S'deserialize'
p2213
sI2266
S'error_msg'
p2214
sI2267
S"'object_name"
p2215
sI2268
S"'pk"
p2216
sI2269
S"'error_msg"
p2217
sI2270
S'databases'
p2218
sI2271
S'cmp_fmts'
p2219
sI2272
S'ser_fmts'
p2220
sI2273
S'loading'
p2221
sI2274
S'isabs'
p2222
sI2275
S'fixture_dirs'
p2223
sI2276
S'sep'
p2224
sI2277
S'dir_'
p2225
sI2278
S'suffixes'
p2226
sI2279
S'combo'
p2227
sI2280
S'targets'
p2228
sI2281
S'fixture_files'
p2229
sI2282
S'checking'
p2230
sI2283
S'fixture_files_in_dir'
p2231
sI2284
S'iglob'
p2232
sI2285
S'aborting'
p2233
sI2286
S'app_dir'
p2234
sI2287
S'realpath'
p2235
sI2288
S'parts'
p2236
sI2289
S'rsplit'
p2237
sI2290
S'known'
p2238
sI2291
S'namelist'
p2239
sI2292
S'zip-compressed'
p2240
sI2293
S"'absolute"
p2241
sI2294
S'fnmatch'
p2242
sI2295
S'dropwhile'
p2243
sI2296
S'handle_extensions'
p2244
sI2297
S'total_ordering'
p2245
sI2298
S'get_text_list'
p2246
sI2299
S'jslex'
p2247
sI2300
S'prepare_js_for_gettext'
p2248
sI2301
S'plural_forms_re'
p2249
sI2302
S'compile'
p2250
sI2303
S"r'^"
p2251
sI2304
S'plural-forms'
p2252
sI2305
S'\\\\n'
p2253
sI2306
S'\\s*'
p2254
sI2307
S'$'
sI2308
S'multiline'
p2255
sI2309
S'dotall'
p2256
sI2310
S'status_ok'
p2257
sI2311
S'check_programs'
p2258
sI2312
S'programs'
p2259
sI2313
S'translatablefile'
p2260
sI2314
S'locale_dir'
p2261
sI2315
S'__lt__'
p2262
sI2316
S'templatize'
p2263
sI2317
S"'djangojs"
p2264
sI2318
S'extensions'
p2265
sI2319
S'is_templatized'
p2266
sI2320
S'orig_file'
p2267
sI2321
S'file_charset'
p2268
sI2322
S'src_data'
p2269
sI2323
S'thefile'
p2270
sI2324
S'work_file'
p2271
sI2325
S'w'
sI2326
S"'xgettext"
p2272
sI2327
S"'-d"
p2273
sI2328
S'language'
p2274
sI2329
S'gettext_noop'
p2275
sI2330
S'gettext_lazy'
p2276
sI2331
S'ngettext_lazy:1'
p2277
sI2332
S'pgettext:1c'
p2278
sI2333
S'npgettext:1c'
p2279
sI2334
S'xgettext_options'
p2280
sI2335
S'ugettext_noop'
p2281
sI2336
S'ugettext_lazy'
p2282
sI2337
S'ungettext_lazy:1'
p2283
sI2338
S'pgettext_lazy:1c'
p2284
sI2339
S'npgettext_lazy:1c'
p2285
sI2340
S'msgs'
p2286
sI2341
S'happened'
p2287
sI2342
S'xgettext'
p2288
sI2343
S'potfile'
p2289
sI2344
S'pot'
p2290
sI2345
S'old'
p2291
sI2346
S'write_pot_file'
p2292
sI2347
S'over'
p2293
sI2348
S'source'
p2294
sI2349
S'pulls'
p2295
sI2350
S'strings'
p2296
sI2351
S'marked'
p2297
sI2352
S'updates'
p2298
sI2353
S'conf/locale'
p2299
sI2354
S'projects'
p2300
sI2355
S'applications'
p2301
sI2356
S'\\n\\nyou'
p2302
sI2357
S'either'
p2303
sI2358
S'msgmerge_options'
p2304
sI2359
S"'-q"
p2305
sI2360
S'previous'
p2306
sI2361
S'msguniq_options'
p2307
sI2362
S'to-code'
p2308
sI2363
S'msgattrib_options'
p2309
sI2364
S'no-obsolete'
p2310
sI2365
S'from-code'
p2311
sI2366
S'add-comments'
p2312
sI2367
S'translators'
p2313
sI2368
S"'creates"
p2314
sI2369
S'pt_br'
p2315
sI2370
S"'domain"
p2316
sI2371
S"'updates"
p2317
sI2372
S'existing'
p2318
sI2373
S'extension'
p2319
sI2374
S"'extensions"
p2320
sI2375
S'examine'
p2321
sI2376
S'html'
p2322
sI2377
S'txt'
p2323
sI2378
S'js'
p2324
sI2379
S"'if"
p2325
sI2380
S'djangojs'
p2326
sI2381
S'separate'
p2327
sI2382
S"'commas"
p2328
sI2383
S'-e'
p2329
sI2384
S'symlinks'
p2330
sI2385
S"'-s"
p2331
sI2386
S"'symlinks"
p2332
sI2387
S"'follows"
p2333
sI2388
S'examining'
p2334
sI2389
S"'source"
p2335
sI2390
S'templates'
p2336
sI2391
S"'ignore_patterns"
p2337
sI2392
S"'pattern"
p2338
sI2393
S'matching'
p2339
sI2394
S'glob-style'
p2340
sI2395
S'pattern'
p2341
sI2396
S'no-default-ignore'
p2342
sI2397
S"'use_default_ignore_patterns"
p2343
sI2398
S'common'
p2344
sI2399
S'patterns'
p2345
sI2400
S"'cvs"
p2346
sI2401
S"'*~"
p2347
sI2402
S'pyc'
p2348
sI2403
S'no-wrap'
p2349
sI2404
S"'no_wrap"
p2350
sI2405
S'long'
p2351
sI2406
S'several'
p2352
sI2407
S'no-location'
p2353
sI2408
S"'no_location"
p2354
sI2409
S"'no_obsolete"
p2355
sI2410
S'obsolete'
p2356
sI2411
S'keep-pot'
p2357
sI2412
S"'keep_pot"
p2358
sI2413
S'keep'
p2359
sI2414
S'making'
p2360
sI2415
S'useful'
p2361
sI2416
S'debugging'
p2362
sI2417
S'process_all'
p2363
sI2418
S'ignore_patterns'
p2364
sI2419
S'no_obsolete'
p2365
sI2420
S'keep_pot'
p2366
sI2421
S'makemessages'
p2367
sI2422
S'domains'
p2368
sI2423
S'exts'
p2369
sI2424
S"'js"
p2370
sI2425
S"'html"
p2371
sI2426
S"'txt"
p2372
sI2427
S'use_i18n'
p2373
sI2428
S"'examining"
p2374
sI2429
S'invoked_for_django'
p2375
sI2430
S'default_locale_path'
p2376
sI2431
S"'msguniq"
p2377
sI2432
S"'msgmerge"
p2378
sI2433
S"'msgattrib"
p2379
sI2434
S'potfiles'
p2380
sI2435
S'build_potfiles'
p2381
sI2436
S'processing'
p2382
sI2437
S'write_po_file'
p2383
sI2438
S'remove_potfiles'
p2384
sI2439
S'file_list'
p2385
sI2440
S'find_files'
p2386
sI2441
S'msguniq\\n'
p2387
sI2442
S'pot_path'
p2388
sI2443
S'root'
p2389
sI2444
S'is_ignored'
p2390
sI2445
S'fnmatchcase'
p2391
sI2446
S'dir_suffix'
p2392
sI2447
S's*'
p2393
sI2448
S'norm_patterns'
p2394
sI2449
S'all_files'
p2395
sI2450
S'topdown'
p2396
sI2451
S'followlinks'
p2397
sI2452
S"'ignoring"
p2398
sI2453
S'store'
p2399
sI2454
S'translations'
p2400
sI2455
S'pofile'
p2401
sI2456
S'msgmerge\\n'
p2402
sI2457
S'copy_plural_forms'
p2403
sI2458
S'package'
p2404
sI2459
S'msgattrib\\n'
p2405
sI2460
S'django_dir'
p2406
sI2461
S'__file__'
p2407
sI2462
S'django_po'
p2408
sI2463
S'search'
p2409
sI2464
S'plural_form_line'
p2410
sI2465
S'group'
p2411
sI2466
S'copying'
p2412
sI2467
S'plural'
p2413
sI2468
S'forms'
p2414
sI2469
S'migrations'
p2415
sI2470
S'migration'
p2416
sI2471
S'loader'
p2417
sI2472
S'migrationloader'
p2418
sI2473
S'autodetector'
p2419
sI2474
S'migrationautodetector'
p2420
sI2475
S'questioner'
p2421
sI2476
S'migrationquestioner'
p2422
sI2477
S'interactivemigrationquestioner'
p2423
sI2478
S'projectstate'
p2424
sI2479
S'migrationwriter'
p2425
sI2480
S"'specify"
p2426
sI2481
S'dry-run'
p2427
sI2482
S"'dry_run"
p2428
sI2483
S'just'
p2429
sI2484
S'show'
p2430
sI2485
S'what'
p2431
sI2486
S'actually'
p2432
sI2487
S'them'
p2433
sI2488
S'merge'
p2434
sI2489
S"'merge"
p2435
sI2490
S'enable'
p2436
sI2491
S'fixing'
p2437
sI2492
S'conflicts'
p2438
sI2493
S"'empty"
p2439
sI2494
S'dry_run'
p2440
sI2495
S'bad_app_labels'
p2441
sI2496
S'ignore_no_migrations'
p2442
sI2497
S'detect_conflicts'
p2443
sI2498
S'name_str'
p2444
sI2499
S'conflicting'
p2445
sI2500
S'detected'
p2446
sI2501
S'\\nto'
p2447
sI2502
S'fix'
p2448
sI2503
S"'python"
p2449
sI2504
S'manage'
p2450
sI2505
S'makemigrations'
p2451
sI2506
S'handle_merge'
p2452
sI2507
S'project_state'
p2453
sI2508
S'from_apps'
p2454
sI2509
S'specified_apps'
p2455
sI2510
S'supply'
p2456
sI2511
S'changes'
p2457
sI2512
S'arrange_for_graph'
p2458
sI2513
S'graph'
p2459
sI2514
S'write_migration_files'
p2460
sI2515
S'trim_to_apps'
p2461
sI2516
S'convert_apps'
p2462
sI2517
S'directory_created'
p2463
sI2518
S'app_migrations'
p2464
sI2519
S'migrate_heading'
p2465
sI2520
S'migrate_label'
p2466
sI2521
S'operation'
p2467
sI2522
S'operations'
p2468
sI2523
S'describe'
p2469
sI2524
S'migrations_directory'
p2470
sI2525
S'mkdir'
p2471
sI2526
S'init_path'
p2472
sI2527
S'isfile'
p2473
sI2528
S'migration_string'
p2474
sI2529
S'wb'
p2475
sI2530
S'fh'
p2476
sI2531
S"'ask_merge"
p2477
sI2532
S'migration_names'
p2478
sI2533
S'merge_migrations'
p2479
sI2534
S'migration_name'
p2480
sI2535
S'get_migration'
p2481
sI2536
S'ancestry'
p2482
sI2537
S'forwards_plan'
p2483
sI2538
S'common_ancestor'
p2484
sI2539
S'eq'
p2485
sI2540
S'ancestor'
p2486
sI2541
S'branch'
p2487
sI2542
S'index'
p2488
sI2543
S'merged_operations'
p2489
sI2544
S'node_app'
p2490
sI2545
S'node_name'
p2491
sI2546
S'merging'
p2492
sI2547
S'ask_merge'
p2493
sI2548
S'numbers'
p2494
sI2549
S'parse_number'
p2495
sI2550
S'biggest_number'
p2496
sI2551
S'subclass'
p2497
sI2552
S'new_migration'
p2498
sI2553
S'04i_merge'
p2499
sI2554
S'\\ncreated'
p2500
sI2555
S'custom_sql_for_model'
p2501
sI2556
S'emit_pre_migrate_signal'
p2502
sI2557
S'executor'
p2503
sI2558
S'migrationexecutor'
p2504
sI2559
S'ambiguityerror'
p2505
sI2560
S'module_has_submodule'
p2506
sI2561
S'schema'
p2507
sI2562
S'manages'
p2508
sI2563
S"'app"
p2509
sI2564
S'synchronize'
p2510
sI2565
S"'migration_name"
p2511
sI2566
S'brought'
p2512
sI2567
S'fake'
p2513
sI2568
S"'fake"
p2514
sI2569
S"'mark"
p2515
sI2570
S"'show"
p2516
sI2571
S'applied'
p2517
sI2572
S'load_initial_data'
p2518
sI2573
S'test_database'
p2519
sI2574
S"'test_database"
p2520
sI2575
S'show_migration_list'
p2521
sI2576
S'migration_progress_callback'
p2522
sI2577
S'run_syncdb'
p2523
sI2578
S'target_app_labels_only'
p2524
sI2579
S'migrated_apps'
p2525
sI2580
S'selectively'
p2526
sI2581
S'sync'
p2527
sI2582
S'zero'
p2528
sI2583
S'get_migration_by_prefix'
p2529
sI2584
S'matches'
p2530
sI2585
S'leaf_nodes'
p2531
sI2586
S'plan'
p2532
sI2587
S'migration_plan'
p2533
sI2588
S'perform'
p2534
sI2589
S'unmigrated_apps'
p2535
sI2590
S'apply'
p2536
sI2591
S'n'
sI2592
S'unapply'
p2537
sI2593
S'target'
p2538
sI2594
S'synchronizing'
p2539
sI2595
S'created_models'
p2540
sI2596
S'sync_apps'
p2541
sI2597
S'test_flush'
p2542
sI2598
S"'flush"
p2543
sI2599
S'yet'
p2544
sI2600
S'reflected'
p2545
sI2601
S'wo'
p2546
sI2602
S"'manage"
p2547
sI2603
S're-run'
p2548
sI2604
S'migrate'
p2549
sI2605
S'apply_start'
p2550
sI2606
S'applying'
p2551
sI2607
S'apply_success'
p2552
sI2608
S'migrate_success'
p2553
sI2609
S'faked'
p2554
sI2610
S'ok'
p2555
sI2611
S'unapply_start'
p2556
sI2612
S'unapplying'
p2557
sI2613
S'unapply_success'
p2558
sI2614
S'seen_models'
p2559
sI2615
S'installed_models'
p2560
sI2616
S'pending_references'
p2561
sI2617
S'model_installed'
p2562
sI2618
S'opts'
p2563
sI2619
S'converter'
p2564
sI2620
S'table_name_converter'
p2565
sI2621
S'manifest'
p2566
sI2622
S'create_models'
p2567
sI2623
S'creating'
p2568
sI2624
S'model\\n'
p2569
sI2625
S'references'
p2570
sI2626
S'creation'
p2571
sI2627
S'sql_create_model'
p2572
sI2628
S'refto'
p2573
sI2629
S'refs'
p2574
sI2630
S'sql_for_pending_references'
p2575
sI2631
S'custom_sql'
p2576
sI2632
S'print_exc'
p2577
sI2633
S'index_sql'
p2578
sI2634
S'sql_indexes_for_model'
p2579
sI2635
S'skip_validation'
p2580
sI2636
S'app_names'
p2581
sI2637
S'invalid_apps'
p2582
sI2638
S'present'
p2583
sI2639
S'shown'
p2584
sI2640
S'node'
p2585
sI2641
S'plan_node'
p2586
sI2642
S'nodes'
p2587
sI2643
S'replaces'
p2588
sI2644
S'squashed'
p2589
sI2645
S'applied_migrations'
p2590
sI2646
S'migrate_failure'
p2591
sI2647
S'requires'
p2592
sI2648
S'flup'
p2593
sI2649
S'remainder'
p2594
sI2650
S"'various"
p2595
sI2651
S'9'
sI2652
S'language_code'
p2596
sI2653
S'runfastcgi'
p2597
sI2654
S'fastcgi_help'
p2598
sI2655
S'basehttp'
p2599
sI2656
S'get_internal_wsgi_application'
p2600
sI2657
S'autoreload'
p2601
sI2658
S'naiveip_re'
p2602
sI2659
S'^'
sI2660
S'ipv4'
p2603
sI2661
S'\\d'
p2604
sI2662
S'\\'
sI2663
S'address'
p2605
sI2664
S'ipv6'
p2606
sI2665
S'a-fa-f0-9'
p2607
sI2666
S'+\\'
p2608
sI2667
S'fqdn'
p2609
sI2668
S'a-za-z0-9-'
p2610
sI2669
S'\\d+'
p2611
sI2670
S'default_port'
p2612
sI2671
S'8000'
p2613
sI2672
S'starts'
p2614
sI2673
S'lightweight'
p2615
sI2674
S'web'
p2616
sI2675
S'development'
p2617
sI2676
S"'addrport"
p2618
sI2677
S'number'
p2619
sI2678
S'ipaddr'
p2620
sI2679
S"'-6"
p2621
sI2680
S"'use_ipv6"
p2622
sI2681
S'nothreading'
p2623
sI2682
S"'use_threading"
p2624
sI2683
S'noreload'
p2625
sI2684
S"'use_reloader"
p2626
sI2685
S'auto-reloader'
p2627
sI2686
S'get_handler'
p2628
sI2687
S'allowed_hosts'
p2629
sI2688
S'use_ipv6'
p2630
sI2689
S'has_ipv6'
p2631
sI2690
S"'your"
p2632
sI2691
S'_raw_ipv6'
p2633
sI2692
S'match'
p2634
sI2693
S"'or"
p2635
sI2694
S'pair'
p2636
sI2695
S'_ipv4'
p2637
sI2696
S'_ipv6'
p2638
sI2697
S'groups'
p2639
sI2698
S':1'
p2640
sI2699
S"'127"
p2641
sI2700
S'use_reloader'
p2642
sI2701
S'inner_run'
p2643
sI2702
S'shutdown_message'
p2644
sI2703
S"'shutdown_message"
p2645
sI2704
S'quit_command'
p2646
sI2705
S"'ctrl-break"
p2647
sI2706
S"'control-c"
p2648
sI2707
S'performing'
p2649
sI2708
S'\\n\\n'
p2650
sI2709
S'check_migrations'
p2651
sI2710
S'started_at'
p2652
sI2711
S'r\\n'
p2653
sI2712
S'starting'
p2654
sI2713
S's/\\n'
p2655
sI2714
S'settings_module'
p2656
sI2715
S'handler'
p2657
sI2716
S'eacces'
p2658
sI2717
S'eaddrinuse'
p2659
sI2718
S'eaddrnotavail'
p2660
sI2719
S'ip'
p2661
sI2720
S'assigned-to'
p2662
sI2721
S'error_text'
p2663
sI2722
S'_exit'
p2664
sI2723
S'keyboardinterrupt'
p2665
sI2724
S'\\nyou'
p2666
sI2725
S'unapplied'
p2667
sI2726
S'until'
p2668
sI2727
S'baserunservercommand'
p2669
sI2728
S'interpreter'
p2670
sI2729
S'tries'
p2671
sI2730
S'ipython'
p2672
sI2731
S'bpython'
p2673
sI2732
S'shells'
p2674
sI2733
S"'ipython"
p2675
sI2734
S"'bpython"
p2676
sI2735
S'plain'
p2677
sI2736
S'no-startup'
p2678
sI2737
S"'no_startup"
p2679
sI2738
S"'when"
p2680
sI2739
S'pythonstartup'
p2681
sI2740
S'~/'
p2682
sI2741
S'pythonrc'
p2683
sI2742
S'interface'
p2684
sI2743
S"'interface"
p2685
sI2744
S'_ipython_pre_011'
p2686
sI2745
S'ipshell'
p2687
sI2746
S'mainloop'
p2688
sI2747
S'_ipython_pre_100'
p2689
sI2748
S'frontend'
p2690
sI2749
S'terminal'
p2691
sI2750
S'ipapp'
p2692
sI2751
S'terminalipythonapp'
p2693
sI2752
S'initialize'
p2694
sI2753
S'_ipython'
p2695
sI2754
S'start_ipython'
p2696
sI2755
S'embed'
p2697
sI2756
S'run_shell'
p2698
sI2757
S'available_shells'
p2699
sI2758
S'imported_objects'
p2700
sI2759
S'rlcompleter'
p2701
sI2760
S'set_completer'
p2702
sI2761
S'completer'
p2703
sI2762
S'complete'
p2704
sI2763
S'parse_and_bind'
p2705
sI2764
S'tab'
p2706
sI2765
S"'~/"
p2707
sI2766
S'expanduser'
p2708
sI2767
S'exec'
p2709
sI2768
S"'exec"
p2710
sI2769
S'nameerror'
p2711
sI2770
S'interact'
p2712
sI2771
S'sql_create'
p2713
sI2772
S'prints'
p2714
sI2773
S'statements'
p2715
sI2774
S'sql_all'
p2716
sI2775
S'sql_delete'
p2717
sI2776
S'drop'
p2718
sI2777
S'sql_custom'
p2719
sI2778
S'modifying'
p2720
sI2779
S'sql_destroy_indexes'
p2721
sI2780
S'required'
p2722
sI2781
S'sql_indexes'
p2723
sI2782
S'containing'
p2724
sI2783
S"'migration"
p2725
sI2784
S'backwards'
p2726
sI2785
S"'backwards"
p2727
sI2786
S'rather'
p2728
sI2787
S'sql_statements'
p2729
sI2788
S'collect_sql'
p2730
sI2789
S'check_for_migrations'
p2731
sI2790
S"'prints"
p2732
sI2791
S'sequences'
p2733
sI2792
S'optimizer'
p2734
sI2793
S'migrationoptimizer'
p2735
sI2794
S'squashes'
p2736
sI2795
S'single'
p2737
sI2796
S'squash'
p2738
sI2797
S'no-optimize'
p2739
sI2798
S"'no_optimize"
p2740
sI2799
S"'do"
p2741
sI2800
S'optimize'
p2742
sI2801
S'squashmigrations'
p2743
sI2802
S'makes'
p2744
sI2803
S'sense'
p2745
sI2804
S'migrations_to_squash'
p2746
sI2805
S'al'
p2747
sI2806
S'mn'
p2748
sI2807
S'answer'
p2749
sI2808
S'yn'
p2750
sI2809
S'proceed'
p2751
sI2810
S'smigration'
p2752
sI2811
S'optimizing'
p2753
sI2812
S'new_operations'
p2754
sI2813
S'optimizations'
p2755
sI2814
S'optimized'
p2756
sI2815
S'0001_squashed_'
p2757
sI2816
S'commit'
p2758
sI2817
S'leave'
p2759
sI2818
S'ones'
p2760
sI2819
S'place'
p2761
sI2820
S'installs'
p2762
sI2821
S'once'
p2763
sI2822
S'instances'
p2764
sI2823
S'codebase'
p2765
sI2824
S'templatecommand'
p2766
sI2825
S'optionally'
p2767
sI2826
S"'directory"
p2768
sI2827
S'validate_name'
p2769
sI2828
S'another'
p2770
sI2829
S'crypto'
p2771
sI2830
S'get_random_string'
p2772
sI2831
S'project_name'
p2773
sI2832
S'chars'
p2774
sI2833
S"'abcdefghijklmnopqrstuvwxyz0123456789"
p2775
sI2834
S'-_'
p2776
sI2835
S"'secret_key"
p2777
sI2836
S"'project"
p2778
sI2837
S'get_user_model'
p2779
sI2838
S"'migrate"
p2780
sI2839
S'syncdb'
p2781
sI2840
S"'auth"
p2782
sI2841
S"'permission"
p2783
sI2842
S'usermodel'
p2784
sI2843
S'superusers'
p2785
sI2844
S'defined'
p2786
sI2845
S'\\nwould'
p2787
sI2846
S'yes/no'
p2788
sI2847
S"'please"
p2789
sI2848
S'yes'
p2790
sI2849
S'createsuperuser'
p2791
sI2850
S'get_runner'
p2792
sI2851
S"'discover"
p2793
sI2852
S'modules'
p2794
sI2853
S'test_runner'
p2795
sI2854
S'testrunner'
p2796
sI2855
S"'test_label"
p2797
sI2856
S"'module"
p2798
sI2857
S'modulename'
p2799
sI2858
S'testcase'
p2800
sI2859
S'test_method'
p2801
sI2860
S'failfast'
p2802
sI2861
S"'failfast"
p2803
sI2862
S'stop'
p2804
sI2863
S'suite'
p2805
sI2864
S"'failed"
p2806
sI2865
S"'testrunner"
p2807
sI2866
S'liveserver'
p2808
sI2867
S"'liveserver"
p2809
sI2868
S"'overrides"
p2810
sI2869
S'live'
p2811
sI2870
S"'with"
p2812
sI2871
S'liveservertestcase'
p2813
sI2872
S'localhost:8081'
p2814
sI2873
S'test_runner_class'
p2815
sI2874
S"'option_list"
p2816
sI2875
S'runtimeerror'
p2817
sI2876
S'accepted'
p2818
sI2877
S'8'
sI2878
S"'add_arguments"
p2819
sI2879
S"'py"
p2820
sI2880
S'streamhandler'
p2821
sI2881
S'addhandler'
p2822
sI2882
S'removehandler'
p2823
sI2883
S'test_labels'
p2824
sI2884
S"'django_live_test_server_address"
p2825
sI2885
S'failures'
p2826
sI2886
S'run_tests'
p2827
sI2887
S"'runs"
p2828
sI2888
S'before'
p2829
sI2889
S'addrport'
p2830
sI2890
S"'port"
p2831
sI2891
S'db_name'
p2832
sI2892
S'create_test_db'
p2833
sI2893
S'autoclobber'
p2834
sI2894
S"'\\nserver"
p2835
sI2895
S'stopped'
p2836
sI2896
S'\\nnote'
p2837
sI2897
S'deleted'
p2838
sI2898
S'explore'
p2839
sI2899
S'own'
p2840
sI2900
S'use_threading'
p2841
sI2901
S'test_db_allows_multiple_connections'
p2842
sI2902
S"'runserver"
p2843
sI2903
S'checkcommand'
p2844
sI2904
S"'deprecated"
p2845
sI2905
S'sqlmigrate'
p2846
sI2906
S"'engine"
p2847
sI2907
S'know'
p2848
sI2908
S'syntax'
p2849
sI2909
S'engine'
p2850
sI2910
S'com/en/dev/ref/settings/'
p2851
sI2911
S'app_models'
p2852
sI2912
S'final_output'
p2853
sI2913
S'not_installed_models'
p2854
sI2914
S'alter_sql'
p2855
sI2915
S'depend'
p2856
sI2916
S'non-existent'
p2857
sI2917
S'close_connection'
p2858
sI2918
S'to_delete'
p2859
sI2919
S'references_to_delete'
p2860
sI2920
S'sql_destroy_model'
p2861
sI2921
S'django_table_names'
p2862
sI2922
S'only_existing'
p2863
sI2923
S'seqs'
p2864
sI2924
S'sequence_list'
p2865
sI2925
S'sql_destroy_indexes_for_model'
p2866
sI2926
S'_split_statements'
p2867
sI2927
S'comment_re'
p2868
sI2928
S"*'|"
p2869
sI2929
S'cleaned_line'
p2870
sI2930
S'\\1'
p2871
sI2931
S'strip'
p2872
sI2932
S'app_dirs'
p2873
sI2933
S'old_app_dir'
p2874
sI2934
S"'models/sql"
p2875
sI2935
S'/models/sql'
p2876
sI2936
S'/sql'
p2877
sI2937
S'post_sql_fields'
p2878
sI2938
S"'post_create_sql"
p2879
sI2939
S'post_create_sql'
p2880
sI2940
S'backend_name'
p2881
sI2941
S'sql_files'
p2882
sI2942
S'sql_file'
p2883
sI2943
S'prepare_sql_script'
p2884
sI2944
S'_allow_fallback'
p2885
sI2945
S'pre-migrate'
p2886
sI2946
S'pre_migrate'
p2887
sI2947
S'pre_syncdb'
p2888
sI2948
S'post-migrate'
p2889
sI2949
S'post_migrate'
p2890
sI2950
S'post_syncdb'
p2891
sI2951
S'posixpath'
p2892
sI2952
S'template'
p2893
sI2953
S'context'
p2894
sI2954
S'archive'
p2895
sI2955
S'urlretrieve'
p2896
sI2956
S'rmtree_errorhandler'
p2897
sI2957
S'_drive_re'
p2898
sI2958
S"'^"
p2899
sI2959
S'a-z'
p2900
sI2960
S'_url_drive_re'
p2901
sI2961
S'url_schemes'
p2902
sI2962
S"'http"
p2903
sI2963
S"'https"
p2904
sI2964
S"'ftp"
p2905
sI2965
S"'separate"
p2906
sI2966
S'commas'
p2907
sI2967
S"'files"
p2908
sI2968
S'app_or_project'
p2909
sI2969
S'paths_to_remove'
p2910
sI2970
S'top_dir'
p2911
sI2971
S'getcwd'
p2912
sI2972
S'ignored'
p2913
sI2973
S'extra_files'
p2914
sI2974
S'rendering'
p2915
sI2975
S'base_name'
p2916
sI2976
S's_name'
p2917
sI2977
S'base_subdir'
p2918
sI2978
S's_template'
p2919
sI2979
S'base_directory'
p2920
sI2980
S's_directory'
p2921
sI2981
S"'final"
p2922
sI2982
S'docs_version'
p2923
sI2983
S"'dev"
p2924
sI2984
S"'docs_version"
p2925
sI2985
S'autoescape'
p2926
sI2986
S'template_dir'
p2927
sI2987
S'handle_template'
p2928
sI2988
S'prefix_length'
p2929
sI2989
S'path_rest'
p2930
sI2990
S'relative_dir'
p2931
sI2991
S'target_dir'
p2932
sI2992
S"'__pycache__"
p2933
sI2993
S'pyo'
p2934
sI2994
S'old_path'
p2935
sI2995
S'new_path'
p2936
sI2996
S'overlaying'
p2937
sI2997
S'template_file'
p2938
sI2998
S'copymode'
p2939
sI2999
S'make_writeable'
p2940
sI3000
S'bits'
p2941
sI3001
S"'re"
p2942
sI3002
S'probably'
p2943
sI3003
S'uncommon'
p2944
sI3004
S'filesystem'
p2945
sI3005
S'cleaning'
p2946
sI3006
S'temporary'
p2947
sI3007
S'path_to_remove'
p2948
sI3008
S'rmtree'
p2949
sI3009
S'onerror'
p2950
sI3010
S'subdir'
p2951
sI3011
S'expanded_template'
p2952
sI3012
S'is_url'
p2953
sI3013
S'absolute_path'
p2954
sI3014
S'download'
p2955
sI3015
S'extract'
p2956
sI3016
S'_a-za-z'
p2957
sI3017
S'\\w*'
p2958
sI3018
S"'make"
p2959
sI3019
S'begins'
p2960
sI3020
S'letter'
p2961
sI3021
S'underscore'
p2962
sI3022
S'letters'
p2963
sI3023
S'underscores'
p2964
sI3024
S'cleanup_url'
p2965
sI3025
S'tmp'
p2966
sI3026
S'display_url'
p2967
sI3027
S"'django_"
p2968
sI3028
S's_template_'
p2969
sI3029
S'tempdir'
p2970
sI3030
S'mkdtemp'
p2971
sI3031
S"'_download"
p2972
sI3032
S'downloading'
p2973
sI3033
S'the_path'
p2974
sI3034
S'used_name'
p2975
sI3035
S'content_disposition'
p2976
sI3036
S'guessed_filename'
p2977
sI3037
S'guess_extension'
p2978
sI3038
S'guessed_path'
p2979
sI3039
S'tar'
p2980
sI3040
S"'_extract"
p2981
sI3041
S'extracting'
p2982
sI3042
S'archiveexception'
p2983
sI3043
S'scheme'
p2984
sI3044
S"'java"
p2985
sI3045
S'new_permissions'
p2986
sI3046
S's_iwusr'
p2987
sI3047
S'subprocess'
p2988
sI3048
S'pipe'
p2989
sI3049
S'popen'
p2990
sI3050
S'default_locale_encoding'
p2991
sI3051
S'os_err_exc_type'
p2992
sI3052
S'close_fds'
p2993
sI3053
S'universal_newlines'
p2994
sI3054
S'strerror'
p2995
sI3055
S'strings_only'
p2996
sI3056
S'executing'
p2997
sI3057
S'communicate'
p2998
sI3058
S'returncode'
p2999
sI3059
S'ext_list'
p3000
sI3060
S'pathext'
p3001
sI3061
S'pathsep'
p3002
sI3062
S"'pathext"
p3003
sI3063
S'com'
p3004
sI3064
S'exe'
p3005
sI3065
S'bat'
p3006
sI3066
S'fext'
p3007
sI3067
S'math'
p3008
sI3068
S'ceil'
p3009
sI3069
S'invalidpage'
p3010
sI3070
S'pagenotaninteger'
p3011
sI3071
S'emptypage'
p3012
sI3072
S'paginator'
p3013
sI3073
S'object_list'
p3014
sI3074
S'per_page'
p3015
sI3075
S'orphans'
p3016
sI3076
S'allow_empty_first_page'
p3017
sI3077
S'_num_pages'
p3018
sI3078
S'_count'
p3019
sI3079
S'validate_number'
p3020
sI3080
S"'that"
p3021
sI3081
S'page'
p3022
sI3082
S'integer'
p3023
sI3083
S'less'
p3024
sI3084
S'num_pages'
p3025
sI3085
S'results'
p3026
sI3086
S'bottom'
p3027
sI3087
S'top'
p3028
sI3088
S'_get_page'
p3029
sI3089
S'_get_count'
p3030
sI3090
S'_get_num_pages'
p3031
sI3091
S'hits'
p3032
sI3092
S'_get_page_range'
p3033
sI3093
S'range'
p3034
sI3094
S'page_range'
p3035
sI3095
S'querysetpaginator'
p3036
sI3096
S'sequence'
p3037
sI3097
S'slice'
p3038
sI3098
S'integer_types'
p3039
sI3099
S'has_next'
p3040
sI3100
S'has_previous'
p3041
sI3101
S'has_other_pages'
p3042
sI3102
S'next_page_number'
p3043
sI3103
S'previous_page_number'
p3044
sI3104
S'start_index'
p3045
sI3105
S'end_index'
p3046
sI3106
S'builtin_serializers'
p3047
sI3107
S'xml'
p3048
sI3108
S'xml_serializer'
p3049
sI3109
S'json'
p3050
sI3110
S'yaml'
p3051
sI3111
S'pyyaml'
p3052
sI3112
S'_serializers'
p3053
sI3113
S'badserializer'
p3054
sI3114
S'internal_use_only'
p3055
sI3115
S'register_serializer'
p3056
sI3116
S'serializer_module'
p3057
sI3117
S'_load_serializers'
p3058
sI3118
S'bad_serializer'
p3059
sI3119
S"'badserializermodule"
p3060
sI3120
S"'deserializer"
p3061
sI3121
S"'serializer"
p3062
sI3122
S'unregister_serializer'
p3063
sI3123
S'serializer'
p3064
sI3124
S'get_serializer_formats'
p3065
sI3125
S'get_deserializer'
p3066
sI3126
S'deserializer'
p3067
sI3127
S'stream_or_string'
p3068
sI3128
S'serialization_modules'
p3069
sI3129
S'serializationerror'
p3070
sI3130
S'deserializationerror'
p3071
sI3131
S'selected_fields'
p3072
sI3132
S'start_serialization'
p3073
sI3133
S'start_object'
p3074
sI3134
S'concrete_model'
p3075
sI3135
S'attname'
p3076
sI3136
S'handle_field'
p3077
sI3137
S'handle_fk_field'
p3078
sI3138
S'handle_m2m_field'
p3079
sI3139
S'end_object'
p3080
sI3140
S'end_serialization'
p3081
sI3141
S"'getvalue"
p3082
sI3142
S'__next__'
p3083
sI3143
S'deserializedobject'
p3084
sI3144
S'm2m_data'
p3085
sI3145
S'save_m2m'
p3086
sI3146
S'save_base'
p3087
sI3147
S'raw'
p3088
sI3148
S'accessor_name'
p3089
sI3149
S'build_instance'
p3090
sI3150
S"'get_by_natural_key"
p3091
sI3151
S'db_manager'
p3092
sI3152
S'get_by_natural_key'
p3093
sI3153
S'doesnotexist'
p3094
sI3154
S'absolute_import'
p3095
sI3155
S'pythonserializer'
p3096
sI3156
S'pythondeserializer'
p3097
sI3157
S'is_aware'
p3098
sI3158
S'__version__'
p3099
sI3159
S"'use_decimal"
p3100
sI3160
S'_current'
p3101
sI3161
S'json_kwargs'
p3102
sI3162
S"'fields"
p3103
sI3163
S"'separators"
p3104
sI3164
S'get_dump_object'
p3105
sI3165
S'djangojsonencoder'
p3106
sI3166
S'generatorexit'
p3107
sI3167
S'jsonencoder'
p3108
sI3168
S'o'
sI3169
S'isoformat'
p3109
sI3170
S'23'
p3110
sI3171
S'26'
p3111
sI3172
S"'+00:00"
p3112
sI3173
S"'z"
p3113
sI3174
S'date'
p3114
sI3175
S'represent'
p3115
sI3176
S'timezone-aware'
p3116
sI3177
S'12'
p3117
sI3178
S'datetimeawarejsonencoder'
p3118
sI3179
S'is_protected_type'
p3119
sI3180
S'_get_pk_val'
p3120
sI3181
S'_get_val_from_obj'
p3121
sI3182
S'value_to_string'
p3122
sI3183
S'related'
p3123
sI3184
S'get_attname'
p3124
sI3185
S'm2m_value'
p3125
sI3186
S"'using"
p3126
sI3187
S"'ignorenonexistent"
p3127
sI3188
S'_get_model'
p3128
sI3189
S'to_python'
p3129
sI3190
S'model_fields'
p3130
sI3191
S'get_all_field_names'
p3131
sI3192
S'field_value'
p3132
sI3193
S'get_field'
p3133
sI3194
S'manytomanyrel'
p3134
sI3195
S'm2m_convert'
p3135
sI3196
S"'__iter__"
p3136
sI3197
S'manytoonerel'
p3137
sI3198
S'model_identifier'
p3138
sI3199
S'csafeloader'
p3139
sI3200
S'safeloader'
p3140
sI3201
S'csafedumper'
p3141
sI3202
S'safedumper'
p3142
sI3203
S'djangosafedumper'
p3143
sI3204
S'represent_decimal'
p3144
sI3205
S'represent_scalar'
p3145
sI3206
S"'tag"
p3146
sI3207
S'org'
p3147
sI3208
S'2002'
p3148
sI3209
S'add_representer'
p3149
sI3210
S'timefield'
p3150
sI3211
S'dumper'
p3151
sI3212
S'xmlutils'
p3152
sI3213
S'simplerxmlgenerator'
p3153
sI3214
S'dom'
p3154
sI3215
S'pulldom'
p3155
sI3216
S'sax'
p3156
sI3217
S'expatreader'
p3157
sI3218
S'expatparser'
p3158
sI3219
S'_expatparser'
p3159
sI3220
S'ignorablewhitespace'
p3160
sI3221
S'startdocument'
p3161
sI3222
S'startelement'
p3162
sI3223
S'django-objects'
p3163
sI3224
S'endelement'
p3164
sI3225
S'enddocument'
p3165
sI3226
S'non-model'
p3166
sI3227
S'encountered'
p3167
sI3228
S'attrs'
p3168
sI3229
S'obj_pk'
p3169
sI3230
S'get_internal_type'
p3170
sI3231
S'addquickelement'
p3171
sI3232
S'_start_relational_field'
p3172
sI3233
S'related_att'
p3173
sI3234
S'key_value'
p3174
sI3235
S'handle_m2m'
p3175
sI3236
S'relobj'
p3176
sI3237
S'event_stream'
p3177
sI3238
S'_make_parser'
p3178
sI3239
S'defusedexpatparser'
p3179
sI3240
S'event'
p3180
sI3241
S'start_element'
p3181
sI3242
S'nodename'
p3182
sI3243
S'expandnode'
p3183
sI3244
S'_handle_object'
p3184
sI3245
S'stopiteration'
p3185
sI3246
S'_get_model_from_node'
p3186
sI3247
S'hasattribute'
p3187
sI3248
S'getattribute'
p3188
sI3249
S'field_node'
p3189
sI3250
S'getelementsbytagname'
p3190
sI3251
S'missing'
p3191
sI3252
S'attribute'
p3192
sI3253
S'_handle_m2m_field_node'
p3193
sI3254
S'_handle_fk_field_node'
p3194
sI3255
S"'none"
p3195
sI3256
S'getinnertext'
p3196
sI3257
S"'natural"
p3197
sI3258
S'inner_text'
p3198
sI3259
S'child'
p3199
sI3260
S'childnodes'
p3200
sI3261
S'nodetype'
p3201
sI3262
S'text_node'
p3202
sI3263
S'cdata_section_node'
p3203
sI3264
S'element_node'
p3204
sI3265
S'setfeature'
p3205
sI3266
S'feature_external_ges'
p3206
sI3267
S'feature_external_pes'
p3207
sI3268
S'start_doctype_decl'
p3208
sI3269
S'sysid'
p3209
sI3270
S'pubid'
p3210
sI3271
S'has_internal_subset'
p3211
sI3272
S'dtdforbidden'
p3212
sI3273
S'entity_decl'
p3213
sI3274
S'is_parameter_entity'
p3214
sI3275
S'notation_name'
p3215
sI3276
S'entitiesforbidden'
p3216
sI3277
S'unparsed_entity_decl'
p3217
sI3278
S'external_entity_ref_handler'
p3218
sI3279
S'externalreferenceforbidden'
p3219
sI3280
S'reset'
p3220
sI3281
S'_parser'
p3221
sI3282
S'startdoctypedeclhandler'
p3222
sI3283
S'entitydeclhandler'
p3223
sI3284
S'unparsedentitydeclhandler'
p3224
sI3285
S'externalentityrefhandler'
p3225
sI3286
S'defusedxmlexception'
p3226
sI3287
S'tpl'
p3227
sI3288
S'system_id'
p3228
sI3289
S'public_id'
p3229
sI3290
S'wsgiref'
p3230
sI3291
S'simple_server'
p3231
sI3292
S'util'
p3232
sI3293
S'filewrapper'
p3233
sI3294
S'wsgi'
p3234
sI3295
S'get_wsgi_application'
p3235
sI3296
S'socketserver'
p3236
sI3297
S"'wsgiserver"
p3237
sI3298
S"'wsgirequesthandler"
p3238
sI3299
S'app_path'
p3239
sI3300
S"'wsgi_application"
p3240
sI3301
S'loaded'
p3241
sI3302
S'importing'
p3242
sI3303
S"'app_path"
p3243
sI3304
S"'exception"
p3244
sI3305
S'wsgiserver'
p3245
sI3306
S'request_queue_size'
p3246
sI3307
S"'ipv6"
p3247
sI3308
S'address_family'
p3248
sI3309
S'af_inet6'
p3249
sI3310
S'server_bind'
p3250
sI3311
S'setup_environ'
p3251
sI3312
S'wsgirequesthandler'
p3252
sI3313
S'address_string'
p3253
sI3314
S'client_address'
p3254
sI3315
S'log_message'
p3255
sI3316
S'log_date_time_string'
p3256
sI3317
S'http_success'
p3257
sI3318
S'http_info'
p3258
sI3319
S"'304"
p3259
sI3320
S'http_not_modified'
p3260
sI3321
S'http_redirect'
p3261
sI3322
S"'404"
p3262
sI3323
S'http_not_found'
p3263
sI3324
S"'4"
p3264
sI3325
S'http_bad_request'
p3265
sI3326
S'http_server_error'
p3266
sI3327
S'wsgi_handler'
p3267
sI3328
S'server_address'
p3268
sI3329
S'httpd_cls'
p3269
sI3330
S'threadingmixin'
p3270
sI3331
S'httpd'
p3271
sI3332
S'daemon_threads'
p3272
sI3333
S'set_app'
p3273
sI3334
S'serve_forever'
p3274
sI3335
S"'protocol"
p3275
sI3336
S"'fcgi"
p3276
sI3337
S"'host"
p3277
sI3338
S"'socket"
p3278
sI3339
S"'method"
p3279
sI3340
S"'fork"
p3280
sI3341
S"'daemonize"
p3281
sI3342
S"'workdir"
p3282
sI3343
S"'pidfile"
p3283
sI3344
S"'maxspare"
p3284
sI3345
S"'minspare"
p3285
sI3346
S"'maxchildren"
p3286
sI3347
S"'maxrequests"
p3287
sI3348
S"'outlog"
p3288
sI3349
S"'errlog"
p3289
sI3350
S"'umask"
p3290
sI3351
S'argset'
p3291
sI3352
S'django\\n'
p3292
sI3353
S'need'
p3293
sI3354
S'from\\n'
p3294
sI3355
S'//www'
p3295
sI3356
S'saddi'
p3296
sI3357
S'com/software/flup/'
p3297
sI3358
S"'ve"
p3298
sI3359
S'already\\n'
p3299
sI3360
S'flup_module'
p3300
sI3361
S"'server"
p3301
sI3362
S"'prefork"
p3302
sI3363
S'wsgi_opts'
p3303
sI3364
S'maxspare'
p3304
sI3365
S'minspare'
p3305
sI3366
S'maxchildren'
p3306
sI3367
S'maxrequests'
p3307
sI3368
S"'_fork"
p3308
sI3369
S"'thread"
p3309
sI3370
S"'threaded"
p3310
sI3371
S"'maxthreads"
p3311
sI3372
S'implementation'
p3312
sI3373
S'prefork'
p3313
sI3374
S'thread'
p3314
sI3375
S"'flup"
p3315
sI3376
S"'bindaddress"
p3316
sI3377
S'combination'
p3317
sI3378
S'daemonize'
p3318
sI3379
S"'true"
p3319
sI3380
S"'t"
p3320
sI3381
S"'false"
p3321
sI3382
S"'f"
p3322
sI3383
S'parameter'
p3323
sI3384
S'daemon_kwargs'
p3324
sI3385
S"'out_log"
p3325
sI3386
S"'err_log"
p3326
sI3387
S'become_daemon'
p3327
sI3388
S'our_home_dir'
p3328
sI3389
S'workdir'
p3329
sI3390
S'pidfile'
p3330
sI3391
S'd\\n'
p3331
sI3392
S"'__main__"
p3332
sI3393
S'dispatch'
p3333
sI3394
S'providing_args'
p3334
sI3395
S'baseconv'
p3335
sI3396
S'constant_time_compare'
p3336
sI3397
S'salted_hmac'
p3337
sI3398
S'badsignature'
p3338
sI3399
S'signatureexpired'
p3339
sI3400
S'b64_encode'
p3340
sI3401
S'urlsafe_b64encode'
p3341
sI3402
S'b64_decode'
p3342
sI3403
S'pad'
p3343
sI3404
S'urlsafe_b64decode'
p3344
sI3405
S'base64_hmac'
p3345
sI3406
S'salt'
p3346
sI3407
S'digest'
p3347
sI3408
S'get_cookie_signer'
p3348
sI3409
S'signing'
p3349
sI3410
S'signer'
p3350
sI3411
S'signing_backend'
p3351
sI3412
S'secret_key'
p3352
sI3413
S"b'django"
p3353
sI3414
S'jsonserializer'
p3354
sI3415
S'separators'
p3355
sI3416
S"'latin-1"
p3356
sI3417
S'is_compressed'
p3357
sI3418
S'compressed'
p3358
sI3419
S'base64d'
p3359
sI3420
S'timestampsigner'
p3360
sI3421
S'sign'
p3361
sI3422
S'max_age'
p3362
sI3423
S'unsign'
p3363
sI3424
S'signature'
p3364
sI3425
S"'signer"
p3365
sI3426
S'signed_value'
p3366
sI3427
S'sig'
p3367
sI3428
S"'signature"
p3368
sI3429
S'base62'
p3369
sI3430
S'age'
p3370
sI3431
S'seconds'
p3371
sI3432
S'multivaluedict'
p3372
sI3433
S'iri_to_uri'
p3373
sI3434
S'regex_helper'
p3374
sI3435
S'normalize'
p3375
sI3436
S'_prefixes'
p3376
sI3437
S'_urlconfs'
p3377
sI3438
S'resolvermatch'
p3378
sI3439
S'url_name'
p3379
sI3440
S'namespaces'
p3380
sI3441
S"'__name__"
p3381
sI3442
S'_func_path'
p3382
sI3443
S'view_path'
p3383
sI3444
S'resolver404'
p3384
sI3445
S'noreversematch'
p3385
sI3446
S'get_callable'
p3386
sI3447
S'lookup_view'
p3387
sI3448
S'can_fail'
p3388
sI3449
S'mod_name'
p3389
sI3450
S'func_name'
p3390
sI3451
S'get_mod_func'
p3391
sI3452
S'fully'
p3392
sI3453
S'qualified'
p3393
sI3454
S'mod'
p3394
sI3455
S'parentmod'
p3395
sI3456
S'submod'
p3396
sI3457
S'parent'
p3397
sI3458
S'view_func'
p3398
sI3459
S'get_resolver'
p3399
sI3460
S'get_ns_resolver'
p3400
sI3461
S'ns_pattern'
p3401
sI3462
S'ns_resolver'
p3402
sI3463
S'url_patterns'
p3403
sI3464
S'dot'
p3404
sI3465
S'rindex'
p3405
sI3466
S'localeregexprovider'
p3406
sI3467
S'regex'
p3407
sI3468
S'_regex'
p3408
sI3469
S'_regex_dict'
p3409
sI3470
S'compiled_regex'
p3410
sI3471
S'unicode'
p3411
sI3472
S'regular'
p3412
sI3473
S'expression'
p3413
sI3474
S'regexurlpattern'
p3414
sI3475
S'default_args'
p3415
sI3476
S'_callback'
p3416
sI3477
S'_callback_str'
p3417
sI3478
S'add_prefix'
p3418
sI3479
S"'_callback_str"
p3419
sI3480
S'groupdict'
p3420
sI3481
S'urlconf_name'
p3421
sI3482
S'default_kwargs'
p3422
sI3483
S'_urlconf_module'
p3423
sI3484
S'_reverse_dict'
p3424
sI3485
S'_namespace_dict'
p3425
sI3486
S'_app_dict'
p3426
sI3487
S'_callback_strs'
p3427
sI3488
S'_populated'
p3428
sI3489
S'urlconf_repr'
p3429
sI3490
S'_populate'
p3430
sI3491
S'lookups'
p3431
sI3492
S"'_callback"
p3432
sI3493
S'partial'
p3433
sI3494
S'lookup_str'
p3434
sI3495
S'p_pattern'
p3435
sI3496
S'parent_pat'
p3436
sI3497
S'reverse_dict'
p3437
sI3498
S'pat'
p3438
sI3499
S'getlist'
p3439
sI3500
S'new_matches'
p3440
sI3501
S'appendlist'
p3441
sI3502
S'sub_pattern'
p3442
sI3503
S'namespace_dict'
p3443
sI3504
S'namespace_list'
p3444
sI3505
S'app_dict'
p3445
sI3506
S'tried'
p3446
sI3507
S'end'
p3447
sI3508
S'sub_match'
p3448
sI3509
S'sub_tried'
p3449
sI3510
S"'tried"
p3450
sI3511
S't'
sI3512
S'sub_match_dict'
p3451
sI3513
S'urlpatterns'
p3452
sI3514
S'included'
p3453
sI3515
S'caused'
p3454
sI3516
S'circular'
p3455
sI3517
S'view_type'
p3456
sI3518
S"'handler"
p3457
sI3519
S'urls'
p3458
sI3520
S'_reverse_with_prefix'
p3459
sI3521
S'_prefix'
p3460
sI3522
S'mix'
p3461
sI3523
S'*args'
p3462
sI3524
S'**kwargs'
p3463
sI3525
S'call'
p3464
sI3526
S'text_args'
p3465
sI3527
S'text_kwargs'
p3466
sI3528
S'original_lookup'
p3467
sI3529
S"'reversing"
p3468
sI3530
S'dotted'
p3469
sI3531
S'possibilities'
p3470
sI3532
S'prefix_norm'
p3471
sI3533
S'prefix_args'
p3472
sI3534
S'possibility'
p3473
sI3535
S'candidate_subs'
p3474
sI3536
S'candidate_pat'
p3475
sI3537
S"'__module__"
p3476
sI3538
S'lookup_view_s'
p3477
sI3539
S'localeregexurlresolver'
p3478
sI3540
S'regex_compiled'
p3479
sI3541
S'get_urlconf'
p3480
sI3542
S'viewname'
p3481
sI3543
S'current_app'
p3482
sI3544
S'get_script_prefix'
p3483
sI3545
S'resolved_path'
p3484
sI3546
S'ns'
p3485
sI3547
S'inside'
p3486
sI3548
S'reverse_lazy'
p3487
sI3549
S'clear_url_caches'
p3488
sI3550
S'cache_clear'
p3489
sI3551
S'clear_script_prefix'
p3490
sI3552
S'is_valid_path'
p3491
sI3553
S'ungettext_lazy'
p3492
sI3554
S'is_valid_ipv6_address'
p3493
sI3555
S'urlsplit'
p3494
sI3556
S'urlunsplit'
p3495
sI3557
S'empty_values'
p3496
sI3558
S'regexvalidator'
p3497
sI3559
S"'enter"
p3498
sI3560
S"'invalid"
p3499
sI3561
S'inverse_match'
p3500
sI3562
S'string'
p3501
sI3563
S'urlvalidator'
p3502
sI3564
S'a-z0-9\\'
p3503
sI3565
S'\\-'
p3504
sI3566
S'a-z0-9'
p3505
sI3567
S'a-z0-9-'
p3506
sI3568
S'61'
p3507
sI3569
S"r'localhost|"
p3508
sI3570
S"r'\\d"
p3509
sI3571
S"r'\\"
p3510
sI3572
S'a-f0-9'
p3511
sI3573
S':\\d+'
p3512
sI3574
S'\\s+'
p3513
sI3575
S'ignorecase'
p3514
sI3576
S'schemes'
p3515
sI3577
S"'ftps"
p3516
sI3578
S'netloc'
p3517
sI3579
S'query'
p3518
sI3580
S'fragment'
p3519
sI3581
S'unicodeerror'
p3520
sI3582
S'validate_integer'
p3521
sI3583
S'emailvalidator'
p3522
sI3584
S'user_regex'
p3523
sI3585
S"'*+/"
p3524
sI3586
S'^_`'
p3525
sI3587
S'|~0-9a-z'
p3526
sI3588
S"r'|^"
p3527
sI3589
S'\\001-\\010\\013\\014\\016-\\037'
p3528
sI3590
S'-\\'
p3529
sI3591
S'-\\177'
p3530
sI3592
S'|\\\\'
p3531
sI3593
S'\\001-\\011\\013\\014\\016-\\177'
p3532
sI3594
S'domain_regex'
p3533
sI3595
S'247'
p3534
sI3596
S'literal_regex'
p3535
sI3597
S'domain_whitelist'
p3536
sI3598
S"'localhost"
p3537
sI3599
S'whitelist'
p3538
sI3600
S'user_part'
p3539
sI3601
S'domain_part'
p3540
sI3602
S'validate_domain_part'
p3541
sI3603
S'literal_match'
p3542
sI3604
S'ip_address'
p3543
sI3605
S'validate_ipv46_address'
p3544
sI3606
S'validate_email'
p3545
sI3607
S'slug_re'
p3546
sI3608
S'-a-za-z0-9_'
p3547
sI3609
S'validate_slug'
p3548
sI3610
S"'slug"
p3549
sI3611
S'consisting'
p3550
sI3612
S'hyphens'
p3551
sI3613
S'ipv4_re'
p3552
sI3614
S'25'
p3553
sI3615
S'0-5'
p3554
sI3616
S'|2'
p3555
sI3617
S'0-4'
p3556
sI3618
S'\\d|'
p3557
sI3619
S'0-1'
p3558
sI3620
S'validate_ipv4_address'
p3559
sI3621
S'validate_ipv6_address'
p3560
sI3622
S'ip_address_validator_map'
p3561
sI3623
S"'both"
p3562
sI3624
S"'ipv4"
p3563
sI3625
S'ip_address_validators'
p3564
sI3626
S'protocol'
p3565
sI3627
S'unpack_ipv4'
p3566
sI3628
S'`unpack_ipv4`'
p3567
sI3629
S'`protocol`'
p3568
sI3630
S'comma_separated_int_list_re'
p3569
sI3631
S'validate_comma_separated_integer_list'
p3570
sI3632
S'digits'
p3571
sI3633
S'basevalidator'
p3572
sI3634
S'compare'
p3573
sI3635
S"'ensure"
p3574
sI3636
S'limit_value'
p3575
sI3637
S'show_value'
p3576
sI3638
S"'limit_value"
p3577
sI3639
S'cleaned'
p3578
sI3640
S"'show_value"
p3579
sI3641
S'maxvaluevalidator'
p3580
sI3642
S'equal'
p3581
sI3643
S"'max_value"
p3582
sI3644
S'minvaluevalidator'
p3583
sI3645
S'greater'
p3584
sI3646
S"'min_value"
p3585
sI3647
S'minlengthvalidator'
p3586
sI3648
S'character'
p3587
sI3649
S"'min_length"
p3588
sI3650
S'maxlengthvalidator'
p3589
sI3651
S'most'
p3590
sI3652
S'formsets'
p3591
sI3653
S'widgets'
p3592
sI3654
S'extras'
p3593
sI3655
S'selectdatewidget'
p3594
sI3656
S"'selectdatewidget"
p3595
sI3657
S'widget'
p3596
sI3658
S'datetime_safe'
p3597
sI3659
S'dates'
p3598
sI3660
S'months'
p3599
sI3661
S'safestring'
p3600
sI3662
S'mark_safe'
p3601
sI3663
S'formats'
p3602
sI3664
S'get_format'
p3603
sI3665
S're_date'
p3604
sI3666
S'\\d\\d'
p3605
sI3667
S'_parse_date_fmt'
p3606
sI3668
S'fmt'
p3607
sI3669
S"'date_format"
p3608
sI3670
S'escaped'
p3609
sI3671
S"'yy"
p3610
sI3672
S"'year"
p3611
sI3673
S"'befmmnn"
p3612
sI3674
S"'month"
p3613
sI3675
S"'dj"
p3614
sI3676
S"'day"
p3615
sI3677
S'none_value'
p3616
sI3678
S'month_field'
p3617
sI3679
S's_month'
p3618
sI3680
S'day_field'
p3619
sI3681
S's_day'
p3620
sI3682
S'year_field'
p3621
sI3683
S's_year'
p3622
sI3684
S'years'
p3623
sI3685
S'empty_label'
p3624
sI3686
S'this_year'
p3625
sI3687
S'today'
p3626
sI3688
S'year'
p3627
sI3689
S"'empty_label"
p3628
sI3690
S'list/tuple'
p3629
sI3691
S'elements'
p3630
sI3692
S'year_none_value'
p3631
sI3693
S'month_none_value'
p3632
sI3694
S'day_none_value'
p3633
sI3695
S'year_val'
p3634
sI3696
S'month_val'
p3635
sI3697
S'day_val'
p3636
sI3698
S'month'
p3637
sI3699
S'day'
p3638
sI3700
S'use_l10n'
p3639
sI3701
S'input_format'
p3640
sI3702
S"'date_input_formats"
p3641
sI3703
S'strptime'
p3642
sI3704
S'create_select'
p3643
sI3705
S'id_for_label'
p3644
sI3706
S'id_'
p3645
sI3707
S'first_select'
p3646
sI3708
S'value_from_datadict'
p3647
sI3709
S'date_value'
p3648
sI3710
S'new_date'
p3649
sI3711
S"'id_"
p3650
sI3712
S'is_required'
p3651
sI3713
S'local_attrs'
p3652
sI3714
S'build_attrs'
p3653
sI3715
S'select_html'
p3654
sI3716
S'decimalexception'
p3655
sI3717
S'validators'
p3656
sI3718
S'from_current_timezone'
p3657
sI3719
S'to_current_timezone'
p3658
sI3720
S'textinput'
p3659
sI3721
S'numberinput'
p3660
sI3722
S'emailinput'
p3661
sI3723
S'urlinput'
p3662
sI3724
S'hiddeninput'
p3663
sI3725
S'multiplehiddeninput'
p3664
sI3726
S'clearablefileinput'
p3665
sI3727
S'checkboxinput'
p3666
sI3728
S'nullbooleanselect'
p3667
sI3729
S'selectmultiple'
p3668
sI3730
S'dateinput'
p3669
sI3731
S'datetimeinput'
p3670
sI3732
S'timeinput'
p3671
sI3733
S'splitdatetimewidget'
p3672
sI3734
S'splithiddendatetimewidget'
p3673
sI3735
S'file_input_contradiction'
p3674
sI3736
S'clean_ipv6_address'
p3675
sI3737
S"'datefield"
p3676
sI3738
S"'timefield"
p3677
sI3739
S"'datetimefield"
p3678
sI3740
S"'regexfield"
p3679
sI3741
S"'emailfield"
p3680
sI3742
S"'filefield"
p3681
sI3743
S"'imagefield"
p3682
sI3744
S"'urlfield"
p3683
sI3745
S"'choicefield"
p3684
sI3746
S"'multiplechoicefield"
p3685
sI3747
S"'combofield"
p3686
sI3748
S"'multivaluefield"
p3687
sI3749
S"'floatfield"
p3688
sI3750
S"'splitdatetimefield"
p3689
sI3751
S"'ipaddressfield"
p3690
sI3752
S"'genericipaddressfield"
p3691
sI3753
S"'filepathfield"
p3692
sI3754
S"'slugfield"
p3693
sI3755
S"'typedchoicefield"
p3694
sI3756
S"'typedmultiplechoicefield"
p3695
sI3757
S'hidden_widget'
p3696
sI3758
S'default_validators'
p3697
sI3759
S'default_error_messages'
p3698
sI3760
S"'required"
p3699
sI3761
S'creation_counter'
p3700
sI3762
S'help_text'
p3701
sI3763
S'error_messages'
p3702
sI3764
S'show_hidden_initial'
p3703
sI3765
S'localize'
p3704
sI3766
S'label_suffix'
p3705
sI3767
S'is_localized'
p3706
sI3768
S'extra_attrs'
p3707
sI3769
S'widget_attrs'
p3708
sI3770
S'__mro__'
p3709
sI3771
S"'default_error_messages"
p3710
sI3772
S'prepare_value'
p3711
sI3773
S'run_validators'
p3712
sI3774
S'bound_data'
p3713
sI3775
S'get_limit_choices_to'
p3714
sI3776
S'limit_choices_to'
p3715
sI3777
S'_has_changed'
p3716
sI3778
S'initial_value'
p3717
sI3779
S"'_coerce"
p3718
sI3780
S'_coerce'
p3719
sI3781
S'data_value'
p3720
sI3782
S'__deepcopy__'
p3721
sI3783
S'memo'
p3722
sI3784
S'deepcopy'
p3723
sI3785
S'min_length'
p3724
sI3786
S"'maxlength"
p3725
sI3787
S'integerfield'
p3726
sI3788
S'whole'
p3727
sI3789
S'max_value'
p3728
sI3790
S'min_value'
p3729
sI3791
S"'localize"
p3730
sI3792
S"'widget"
p3731
sI3793
S'sanitize_separators'
p3732
sI3794
S"'min"
p3733
sI3795
S"'max"
p3734
sI3796
S'floatfield'
p3735
sI3797
S"'inf"
p3736
sI3798
S"'-inf"
p3737
sI3799
S"'step"
p3738
sI3800
S"'any"
p3739
sI3801
S'decimalfield'
p3740
sI3802
S'there'
p3741
sI3803
S'digit'
p3742
sI3804
S'total'
p3743
sI3805
S"'max_decimal_places"
p3744
sI3806
S'places'
p3745
sI3807
S"'max_whole_digits"
p3746
sI3808
S'point'
p3747
sI3809
S'max_digits'
p3748
sI3810
S'inf'
p3749
sI3811
S'-inf'
p3750
sI3812
S'digittuple'
p3751
sI3813
S'exponent'
p3752
sI3814
S'as_tuple'
p3753
sI3815
S'decimals'
p3754
sI3816
S'whole_digits'
p3755
sI3817
S'step'
p3756
sI3818
S'basetemporalfield'
p3757
sI3819
S'input_formats'
p3758
sI3820
S'unicode_value'
p3759
sI3821
S'datefield'
p3760
sI3822
S'get_format_lazy'
p3761
sI3823
S"'time_input_formats"
p3762
sI3824
S"'datetime_input_formats"
p3763
sI3825
S'date/time'
p3764
sI3826
S'splitdatetimefield'
p3765
sI3827
S'regexfield'
p3766
sI3828
S'error_message'
p3767
sI3829
S"'error_messages"
p3768
sI3830
S'_set_regex'
p3769
sI3831
S'_get_regex'
p3770
sI3832
S"'_regex_validator"
p3771
sI3833
S'_regex_validator'
p3772
sI3834
S'emailfield'
p3773
sI3835
S'filefield'
p3774
sI3836
S'submitted'
p3775
sI3837
S'form'
p3776
sI3838
S"'missing"
p3777
sI3839
S'length'
p3778
sI3840
S"'contradiction"
p3779
sI3841
S'submit'
p3780
sI3842
S'checkbox'
p3781
sI3843
S'allow_empty_file'
p3782
sI3844
S"'allow_empty_file"
p3783
sI3845
S"'length"
p3784
sI3846
S'imagefield'
p3785
sI3847
S"'invalid_image"
p3786
sI3848
S'uploaded'
p3787
sI3849
S'corrupted'
p3788
sI3850
S'verify'
p3789
sI3851
S'urlfield'
p3790
sI3852
S'split_url'
p3791
sI3853
S'url_fields'
p3792
sI3854
S'nullbooleanfield'
p3793
sI3855
S'choicefield'
p3794
sI3856
S"'invalid_choice"
p3795
sI3857
S"'select"
p3796
sI3858
S'choice'
p3797
sI3859
S'_choices'
p3798
sI3860
S'_get_choices'
p3799
sI3861
S'_set_choices'
p3800
sI3862
S'valid_value'
p3801
sI3863
S'text_value'
p3802
sI3864
S'k2'
p3803
sI3865
S'v2'
p3804
sI3866
S'typedchoicefield'
p3805
sI3867
S'coerce'
p3806
sI3868
S"'coerce"
p3807
sI3869
S'empty_value'
p3808
sI3870
S"'empty_value"
p3809
sI3871
S'multiplechoicefield'
p3810
sI3872
S"'invalid_list"
p3811
sI3873
S'initial_set'
p3812
sI3874
S'data_set'
p3813
sI3875
S'typedmultiplechoicefield'
p3814
sI3876
S'combofield'
p3815
sI3877
S'multivaluefield'
p3816
sI3878
S"'incomplete"
p3817
sI3879
S'require_all_fields'
p3818
sI3880
S"'require_all_fields"
p3819
sI3881
S'clean_data'
p3820
sI3882
S'data_list'
p3821
sI3883
S'implement'
p3822
sI3884
S'filepathfield'
p3823
sI3885
S'recursive'
p3824
sI3886
S'allow_files'
p3825
sI3887
S'allow_folders'
p3826
sI3888
S'match_re'
p3827
sI3889
S'full_file'
p3828
sI3890
S"'invalid_date"
p3829
sI3891
S"'invalid_time"
p3830
sI3892
S'input_date_formats'
p3831
sI3893
S'input_time_formats'
p3832
sI3894
S'combine'
p3833
sI3895
S'ipaddressfield'
p3834
sI3896
S'genericipaddressfield'
p3835
sI3897
S'slugfield'
p3836
sI3898
S'flatatt'
p3837
sI3899
S'errordict'
p3838
sI3900
S'errorlist'
p3839
sI3901
S'mediadefiningclass'
p3840
sI3902
S'textarea'
p3841
sI3903
S'conditional_escape'
p3842
sI3904
S'format_html'
p3843
sI3905
S'ugettext'
p3844
sI3906
S"'baseform"
p3845
sI3907
S"'form"
p3846
sI3908
S'pretty_name'
p3847
sI3909
S'capitalize'
p3848
sI3910
S'get_declared_fields'
p3849
sI3911
S'bases'
p3850
sI3912
S'with_base_fields'
p3851
sI3913
S'sort'
p3852
sI3914
S"'base_fields"
p3853
sI3915
S'base_fields'
p3854
sI3916
S"'declared_fields"
p3855
sI3917
S'declared_fields'
p3856
sI3918
S'declarativefieldsmetaclass'
p3857
sI3919
S'__new__'
p3858
sI3920
S'mcs'
p3859
sI3921
S'current_fields'
p3860
sI3922
S'new_class'
p3861
sI3923
S'baseform'
p3862
sI3924
S'auto_id'
p3863
sI3925
S'error_class'
p3864
sI3926
S'empty_permitted'
p3865
sI3927
S'is_bound'
p3866
sI3928
S'_errors'
p3867
sI3929
S'_changed_data'
p3868
sI3930
S'as_table'
p3869
sI3931
S'boundfield'
p3870
sI3932
S'full_clean'
p3871
sI3933
S'is_valid'
p3872
sI3934
S'add_initial_prefix'
p3873
sI3935
S"'initial-"
p3874
sI3936
S'_html_output'
p3875
sI3937
S'normal_row'
p3876
sI3938
S'error_row'
p3877
sI3939
S'row_ender'
p3878
sI3940
S'help_text_html'
p3879
sI3941
S'errors_on_separate_row'
p3880
sI3942
S'top_errors'
p3881
sI3943
S'hidden_fields'
p3882
sI3944
S'html_class_attr'
p3883
sI3945
S'bf'
p3884
sI3946
S'bf_errors'
p3885
sI3947
S'is_hidden'
p3886
sI3948
S'hidden'
p3887
sI3949
S'css_classes'
p3888
sI3950
S'label_tag'
p3889
sI3951
S"'help_text"
p3890
sI3952
S"'html_class_attr"
p3891
sI3953
S"'field_name"
p3892
sI3954
S'html_name'
p3893
sI3955
S'str_hidden'
p3894
sI3956
S'last_row'
p3895
sI3957
S'tr'
p3896
sI3958
S'th'
p3897
sI3959
S'/th'
p3898
sI3960
S'td'
p3899
sI3961
S'/td'
p3900
sI3962
S'/tr'
p3901
sI3963
S'colspan'
p3902
sI3964
S'br'
p3903
sI3965
S'span'
p3904
sI3966
S'helptext'
p3905
sI3967
S'/span'
p3906
sI3968
S'as_ul'
p3907
sI3969
S'li'
p3908
sI3970
S'/li'
p3909
sI3971
S'as_p'
p3910
sI3972
S'/p'
p3911
sI3973
S"'nonfield"
p3912
sI3974
S'_raw_value'
p3913
sI3975
S'fieldname'
p3914
sI3976
S'add_error'
p3915
sI3977
S'`field`'
p3916
sI3978
S'`none`'
p3917
sI3979
S'`error`'
p3918
sI3980
S'cleaned_data'
p3919
sI3981
S'has_error'
p3920
sI3982
S'as_data'
p3921
sI3983
S'has_changed'
p3922
sI3984
S'_clean_fields'
p3923
sI3985
S'_clean_form'
p3924
sI3986
S'_post_clean'
p3925
sI3987
S"'clean_"
p3926
sI3988
S'changed_data'
p3927
sI3989
S'prefixed_name'
p3928
sI3990
S'initial_prefixed_name'
p3929
sI3991
S'is_multipart'
p3930
sI3992
S'needs_multipart_form'
p3931
sI3993
S'visible_fields'
p3932
sI3994
S'html_initial_name'
p3933
sI3995
S'html_initial_id'
p3934
sI3996
S'as_widget'
p3935
sI3997
S'as_hidden'
p3936
sI3998
S'only_initial'
p3937
sI3999
S'subwidget'
p3938
sI4000
S'subwidgets'
p3939
sI4001
S'idx'
p3940
sI4002
S'as_text'
p3941
sI4003
S'as_textarea'
p3942
sI4004
S"'supports_microseconds"
p3943
sI4005
S"'for"
p3944
sI4006
S"'required_css_class"
p3945
sI4007
S'required_css_class'
p3946
sI4008
S'/label'
p3947
sI4009
S'extra_classes'
p3948
sI4010
S"'split"
p3949
sI4011
S"'error_css_class"
p3950
sI4012
S'error_css_class'
p3951
sI4013
S'xrange'
p3952
sI4014
S'ungettext'
p3953
sI4015
S"'baseformset"
p3954
sI4016
S"'formset_factory"
p3955
sI4017
S"'all_valid"
p3956
sI4018
S'total_form_count'
p3957
sI4019
S"'total_forms"
p3958
sI4020
S'initial_form_count'
p3959
sI4021
S"'initial_forms"
p3960
sI4022
S'min_num_form_count'
p3961
sI4023
S"'min_num_forms"
p3962
sI4024
S'max_num_form_count'
p3963
sI4025
S"'max_num_forms"
p3964
sI4026
S'ordering_field_name'
p3965
sI4027
S"'order"
p3966
sI4028
S'deletion_field_name'
p3967
sI4029
S'default_min_num'
p3968
sI4030
S'default_max_num'
p3969
sI4031
S'1000'
p3970
sI4032
S'managementform'
p3971
sI4033
S'baseformset'
p3972
sI4034
S'get_default_prefix'
p3973
sI4035
S'_non_form_errors'
p3974
sI4036
S'management_form'
p3975
sI4037
S"'managementform"
p3976
sI4038
S'tampered'
p3977
sI4039
S"'missing_management_form"
p3978
sI4040
S'min_num'
p3979
sI4041
S'max_num'
p3980
sI4042
S'min'
p3981
sI4043
S'absolute_max'
p3982
sI4044
S'initial_forms'
p3983
sI4045
S'total_forms'
p3984
sI4046
S'_construct_form'
p3985
sI4047
S"'auto_id"
p3986
sI4048
S"'prefix"
p3987
sI4049
S"'error_class"
p3988
sI4050
S"'data"
p3989
sI4051
S"'initial"
p3990
sI4052
S"'empty_permitted"
p3991
sI4053
S'add_fields'
p3992
sI4054
S'extra_forms'
p3993
sI4055
S'empty_form'
p3994
sI4056
S"'__prefix__"
p3995
sI4057
S"'cleaned_data"
p3996
sI4058
S'deleted_forms'
p3997
sI4059
S'can_delete'
p3998
sI4060
S"'_deleted_form_indexes"
p3999
sI4061
S'_deleted_form_indexes'
p4000
sI4062
S'_should_delete_form'
p4001
sI4063
S'ordered_forms'
p4002
sI4064
S'can_order'
p4003
sI4065
S"'ordered_forms"
p4004
sI4066
S"'_ordering"
p4005
sI4067
S'_ordering'
p4006
sI4068
S'compare_ordering_key'
p4007
sI4069
S'non_form_errors'
p4008
sI4070
S'total_error_count'
p4009
sI4071
S'sum'
p4010
sI4072
S'form_errors'
p4011
sI4073
S'forms_valid'
p4012
sI4074
S'validate_max'
p4013
sI4075
S'fewer'
p4014
sI4076
S"'too_many_forms"
p4015
sI4077
S'validate_min'
p4016
sI4078
S"'too_few_forms"
p4017
sI4079
S'formset_factory'
p4018
sI4080
S'formset'
p4019
sI4081
S"'extra"
p4020
sI4082
S"'can_order"
p4021
sI4083
S"'can_delete"
p4022
sI4084
S"'min_num"
p4023
sI4085
S"'max_num"
p4024
sI4086
S"'absolute_max"
p4025
sI4087
S"'validate_min"
p4026
sI4088
S"'validate_max"
p4027
sI4089
S"'formset"
p4028
sI4090
S'all_valid'
p4029
sI4091
S'capfirst'
p4030
sI4092
S"'modelform"
p4031
sI4093
S"'basemodelform"
p4032
sI4094
S"'model_to_dict"
p4033
sI4095
S"'fields_for_model"
p4034
sI4096
S"'save_instance"
p4035
sI4097
S"'modelchoicefield"
p4036
sI4098
S"'modelmultiplechoicefield"
p4037
sI4099
S"'all_fields"
p4038
sI4100
S"'basemodelformset"
p4039
sI4101
S"'modelformset_factory"
p4040
sI4102
S"'baseinlineformset"
p4041
sI4103
S"'inlineformset_factory"
p4042
sI4104
S'all_fields'
p4043
sI4105
S'construct_instance'
p4044
sI4106
S'file_field_list'
p4045
sI4107
S'editable'
p4046
sI4108
S'autofield'
p4047
sI4109
S'save_form_data'
p4048
sI4110
S'save_instance'
p4049
sI4111
S'fail_message'
p4050
sI4112
S"'saved"
p4051
sI4113
S'construct'
p4052
sI4114
S'virtual_fields'
p4053
sI4115
S"'save_form_data"
p4054
sI4116
S'model_to_dict'
p4055
sI4117
S'manytomanyfield'
p4056
sI4118
S'concrete_fields'
p4057
sI4119
S"'editable"
p4058
sI4120
S'qs'
p4059
sI4121
S'value_from_object'
p4060
sI4122
S'_result_cache'
p4061
sI4123
S'item'
p4062
sI4124
S'values_list'
p4063
sI4125
S'flat'
p4064
sI4126
S'fields_for_model'
p4065
sI4127
S'formfield_callback'
p4066
sI4128
S'localized_fields'
p4067
sI4129
S'help_texts'
p4068
sI4130
S'field_list'
p4069
sI4131
S'modelfield'
p4070
sI4132
S'sortable_virtual_fields'
p4071
sI4133
S'formfield'
p4072
sI4134
S"'formfield_callback"
p4073
sI4135
S'field_dict'
p4074
sI4136
S'modelformoptions'
p4075
sI4137
S"'model"
p4076
sI4138
S"'widgets"
p4077
sI4139
S"'localized_fields"
p4078
sI4140
S"'labels"
p4079
sI4141
S"'help_texts"
p4080
sI4142
S'modelformmetaclass'
p4081
sI4143
S'basemodelform'
p4082
sI4144
S"'meta"
p4083
sI4145
S'mean'
p4084
sI4146
S"'opt"
p4085
sI4147
S'modelform'
p4086
sI4148
S'prohibited'
p4087
sI4149
S'updating'
p4088
sI4150
S'none_model_fields'
p4089
sI4151
S'missing_fields'
p4090
sI4152
S'object_data'
p4091
sI4153
S'_validate_unique'
p4092
sI4154
S"'queryset"
p4093
sI4155
S'complex_filter'
p4094
sI4156
S'_get_validation_exclusions'
p4095
sI4157
S'form_field'
p4096
sI4158
S'blank'
p4097
sI4159
S'_update_errors'
p4098
sI4160
S'construct_instance_exclude'
p4099
sI4161
S'inlineforeignkeyfield'
p4100
sI4162
S'_state'
p4101
sI4163
S'adding'
p4102
sI4164
S'validate_unique'
p4103
sI4165
S"'created"
p4104
sI4166
S"'changed"
p4105
sI4167
S'alters_data'
p4106
sI4168
S'modelform_factory'
p4107
sI4169
S'class_name'
p4108
sI4170
S'form_class_attrs'
p4109
sI4171
S'calling'
p4110
sI4172
S'defining'
p4111
sI4173
S'explicitly'
p4112
sI4174
S'basemodelformset'
p4113
sI4175
S'initial_extra'
p4114
sI4176
S'get_queryset'
p4115
sI4177
S'_existing_object'
p4116
sI4178
S"'_object_dict"
p4117
sI4179
S'_object_dict'
p4118
sI4180
S'_get_to_python'
p4119
sI4181
S'get_related_field'
p4120
sI4182
S'pk_key'
p4121
sI4183
S'pk_field'
p4122
sI4184
S"'instance"
p4123
sI4185
S"'_queryset"
p4124
sI4186
S'ordered'
p4125
sI4187
S'_queryset'
p4126
sI4188
S'save_new'
p4127
sI4189
S'save_existing'
p4128
sI4190
S'saved_forms'
p4129
sI4191
S'save_existing_objects'
p4130
sI4192
S'save_new_objects'
p4131
sI4193
S'all_unique_checks'
p4132
sI4194
S'all_date_checks'
p4133
sI4195
S'forms_to_delete'
p4134
sI4196
S'valid_forms'
p4135
sI4197
S'unique_checks'
p4136
sI4198
S'date_checks'
p4137
sI4199
S'_get_unique_checks'
p4138
sI4200
S'uclass'
p4139
sI4201
S'unique_check'
p4140
sI4202
S'seen_data'
p4141
sI4203
S'row_data'
p4142
sI4204
S"'_get_pk_val"
p4143
sI4205
S'get_unique_error_message'
p4144
sI4206
S'get_form_error'
p4145
sI4207
S'date_check'
p4146
sI4208
S'unique_for'
p4147
sI4209
S'date_data'
p4148
sI4210
S'get_date_error_message'
p4149
sI4211
S'duplicate'
p4150
sI4212
S'date_field'
p4151
sI4213
S"'date_field"
p4152
sI4214
S"'lookup"
p4153
sI4215
S'below'
p4154
sI4216
S'changed_objects'
p4155
sI4217
S'deleted_objects'
p4156
sI4218
S'saved_instances'
p4157
sI4219
S'new_objects'
p4158
sI4220
S'onetoonefield'
p4159
sI4221
S'_pk_field'
p4160
sI4222
S'pk_is_not_editable'
p4161
sI4223
S'parent_link'
p4162
sI4224
S'pk_value'
p4163
sI4225
S'modelchoicefield'
p4164
sI4226
S'modelformset_factory'
p4165
sI4227
S'baseinlineformset'
p4166
sI4228
S'save_as_new'
p4167
sI4229
S'fk'
p4168
sI4230
S'relatedobject'
p4169
sI4231
S'get_accessor_name'
p4170
sI4232
S"'save_m2m"
p4171
sI4233
S"'pk_field"
p4172
sI4234
S"'to_field"
p4173
sI4235
S'_get_foreign_key'
p4174
sI4236
S'parent_model'
p4175
sI4237
S'fk_name'
p4176
sI4238
S'fks_to_parent'
p4177
sI4239
S'get_parent_list'
p4178
sI4240
S'inlineformset_factory'
p4179
sI4241
S'inline'
p4180
sI4242
S'parent_instance'
p4181
sI4243
S'to_field'
p4182
sI4244
S'orig'
p4183
sI4245
S'modelchoiceiterator'
p4184
sI4246
S'cache_choices'
p4185
sI4247
S'choice_cache'
p4186
sI4248
S'label_from_instance'
p4187
sI4249
S'to_field_name'
p4188
sI4250
S'_get_queryset'
p4189
sI4251
S'_set_queryset'
p4190
sI4252
S"'_choices"
p4191
sI4253
S"'_meta"
p4192
sI4254
S'serializable_value'
p4193
sI4255
S'modelmultiplechoicefield'
p4194
sI4256
S"'invalid_pk_value"
p4195
sI4257
S'to_py'
p4196
sI4258
S's__in'
p4197
sI4259
S'modelform_defines_fields'
p4198
sI4260
S'form_class'
p4199
sI4261
S'userlist'
p4200
sI4262
S'format_html_join'
p4201
sI4263
S'escape'
p4202
sI4264
S'boolean_attrs'
p4203
sI4265
S'as_json'
p4204
sI4266
S'escape_html'
p4205
sI4267
S'get_json_data'
p4206
sI4268
S'ul'
p4207
sI4269
S'/ul'
p4208
sI4270
S'initlist'
p4209
sI4271
S"'errorlist"
p4210
sI4272
S'is_naive'
p4211
sI4273
S'current_timezone'
p4212
sI4274
S'get_current_timezone'
p4213
sI4275
S'make_aware'
p4214
sI4276
S"couldn\\'t"
p4215
sI4277
S'interpreted'
p4216
sI4278
S'zone'
p4217
sI4279
S"'may"
p4218
sI4280
S'ambiguous'
p4219
sI4281
S"'datetime"
p4220
sI4282
S"'current_timezone"
p4221
sI4283
S"'ambiguous_timezone"
p4222
sI4284
S'make_naive'
p4223
sI4285
S"'media"
p4224
sI4286
S"'mediadefiningclass"
p4225
sI4287
S"'textinput"
p4226
sI4288
S"'emailinput"
p4227
sI4289
S"'urlinput"
p4228
sI4290
S"'numberinput"
p4229
sI4291
S"'passwordinput"
p4230
sI4292
S"'hiddeninput"
p4231
sI4293
S"'multiplehiddeninput"
p4232
sI4294
S"'clearablefileinput"
p4233
sI4295
S"'fileinput"
p4234
sI4296
S"'dateinput"
p4235
sI4297
S"'datetimeinput"
p4236
sI4298
S"'timeinput"
p4237
sI4299
S"'textarea"
p4238
sI4300
S"'checkboxinput"
p4239
sI4301
S"'nullbooleanselect"
p4240
sI4302
S"'selectmultiple"
p4241
sI4303
S"'radioselect"
p4242
sI4304
S"'checkboxselectmultiple"
p4243
sI4305
S"'multiwidget"
p4244
sI4306
S"'splitdatetimewidget"
p4245
sI4307
S"'splithiddendatetimewidget"
p4246
sI4308
S'media_types'
p4247
sI4309
S"'css"
p4248
sI4310
S'media_attrs'
p4249
sI4311
S'_css'
p4250
sI4312
S'_js'
p4251
sI4313
S"'add_"
p4252
sI4314
S"'render_"
p4253
sI4315
S'render_js'
p4254
sI4316
S'text/javascript'
p4255
sI4317
S'/script'
p4256
sI4318
S'render_css'
p4257
sI4319
S'link'
p4258
sI4320
S'href'
p4259
sI4321
S'text/css'
p4260
sI4322
S'stylesheet'
p4261
sI4323
S'medium'
p4262
sI4324
S'add_js'
p4263
sI4325
S'add_css'
p4264
sI4326
S'__add__'
p4265
sI4327
S'combined'
p4266
sI4328
S'media_property'
p4267
sI4329
S'_media'
p4268
sI4330
S'sup_cls'
p4269
sI4331
S'definition'
p4270
sI4332
S"'extend"
p4271
sI4333
S'parent_widget'
p4272
sI4334
S'input_type'
p4273
sI4335
S"'hidden"
p4274
sI4336
S"'input_type"
p4275
sI4337
S'_format_value'
p4276
sI4338
S'localize_input'
p4277
sI4339
S'final_attrs'
p4278
sI4340
S"'type"
p4279
sI4341
S"'number"
p4280
sI4342
S"'email"
p4281
sI4343
S"'url"
p4282
sI4344
S'passwordinput'
p4283
sI4345
S"'password"
p4284
sI4346
S'render_value'
p4285
sI4347
S'inputs'
p4286
sI4348
S'input_attrs'
p4287
sI4349
S'fileinput'
p4288
sI4350
S'initial_text'
p4289
sI4351
S'input_text'
p4290
sI4352
S"'change"
p4291
sI4353
S'clear_checkbox_label'
p4292
sI4354
S"'clear"
p4293
sI4355
S'template_with_initial'
p4294
sI4356
S'clear_template'
p4295
sI4357
S'template_with_clear'
p4296
sI4358
S'clear_checkbox_id'
p4297
sI4359
S'url_markup_template'
p4298
sI4360
S'/a'
p4299
sI4361
S'clear_checkbox_name'
p4300
sI4362
S"'-clear"
p4301
sI4363
S'substitutions'
p4302
sI4364
S"'initial_text"
p4303
sI4365
S"'input_text"
p4304
sI4366
S"'clear_template"
p4305
sI4367
S"'clear_checkbox_label"
p4306
sI4368
S"'input"
p4307
sI4369
S'checkbox_name'
p4308
sI4370
S'checkbox_id'
p4309
sI4371
S"'clear_checkbox_name"
p4310
sI4372
S"'clear_checkbox_id"
p4311
sI4373
S'default_attrs'
p4312
sI4374
S"'cols"
p4313
sI4375
S"'40"
p4314
sI4376
S"'rows"
p4315
sI4377
S"'10"
p4316
sI4378
S'\\r\\n'
p4317
sI4379
S'/textarea'
p4318
sI4380
S'datetimebaseinput'
p4319
sI4381
S'format_key'
p4320
sI4382
S'supports_microseconds'
p4321
sI4383
S'boolean_check'
p4322
sI4384
S'check_test'
p4323
sI4385
S"'checkbox"
p4324
sI4386
S"'checked"
p4325
sI4387
S'allow_multiple_selected'
p4326
sI4388
S'render_options'
p4327
sI4389
S'/select'
p4328
sI4390
S'render_option'
p4329
sI4391
S'selected_choices'
p4330
sI4392
S'option_value'
p4331
sI4393
S'option_label'
p4332
sI4394
S'selected_html'
p4333
sI4395
S'/option'
p4334
sI4396
S'optgroup'
p4335
sI4397
S'/optgroup'
p4336
sI4398
S'choiceinput'
p4337
sI4399
S'choice_value'
p4338
sI4400
S'choice_label'
p4339
sI4401
S'label_for'
p4340
sI4402
S'is_checked'
p4341
sI4403
S'radiochoiceinput'
p4342
sI4404
S"'radio"
p4343
sI4405
S'checkboxchoiceinput'
p4344
sI4406
S'choicefieldrenderer'
p4345
sI4407
S'choice_input_class'
p4346
sI4408
S'outer_html'
p4347
sI4409
S'id_attr'
p4348
sI4410
S'inner_html'
p4349
sI4411
S'sub_widgets'
p4350
sI4412
S'attrs_plus'
p4351
sI4413
S'sub_ul_renderer'
p4352
sI4414
S'radiofieldrenderer'
p4353
sI4415
S'checkboxfieldrenderer'
p4354
sI4416
S'renderermixin'
p4355
sI4417
S'renderer'
p4356
sI4418
S'_empty_value'
p4357
sI4419
S"'renderer"
p4358
sI4420
S'get_renderer'
p4359
sI4421
S"'_0"
p4360
sI4422
S'radioselect'
p4361
sI4423
S'checkboxselectmultiple'
p4362
sI4424
S'multiwidget'
p4363
sI4425
S'widget_value'
p4364
sI4426
S'format_output'
p4365
sI4427
S'rendered_widgets'
p4366
sI4428
S'_get_media'
p4367
sI4429
S'date_format'
p4368
sI4430
S'time_format'
p4369
sI4431
S'cookie'
p4370
sI4432
S'simplecookie'
p4371
sI4433
S'rawpostdataexception'
p4372
sI4434
S'unreadableposterror'
p4373
sI4435
S'build_request_repr'
p4374
sI4436
S'streaminghttpresponse'
p4375
sI4437
S'httpresponseredirect'
p4376
sI4438
S'httpresponsepermanentredirect'
p4377
sI4439
S'httpresponsenotmodified'
p4378
sI4440
S'httpresponseforbidden'
p4379
sI4441
S'httpresponsenotfound'
p4380
sI4442
S'httpresponsenotallowed'
p4381
sI4443
S'httpresponsegone'
p4382
sI4444
S'httpresponseservererror'
p4383
sI4445
S'jsonresponse'
p4384
sI4446
S"'simplecookie"
p4385
sI4447
S"'parse_cookie"
p4386
sI4448
S"'httprequest"
p4387
sI4449
S"'querydict"
p4388
sI4450
S"'rawpostdataexception"
p4389
sI4451
S"'unreadableposterror"
p4390
sI4452
S"'build_request_repr"
p4391
sI4453
S"'httpresponse"
p4392
sI4454
S"'streaminghttpresponse"
p4393
sI4455
S"'httpresponseredirect"
p4394
sI4456
S"'httpresponsepermanentredirect"
p4395
sI4457
S"'httpresponsenotmodified"
p4396
sI4458
S"'httpresponsebadrequest"
p4397
sI4459
S"'httpresponseforbidden"
p4398
sI4460
S"'httpresponsenotfound"
p4399
sI4461
S"'httpresponsenotallowed"
p4400
sI4462
S"'httpresponsegone"
p4401
sI4463
S"'httpresponseservererror"
p4402
sI4464
S"'http404"
p4403
sI4465
S"'fix_location_header"
p4404
sI4466
S"'jsonresponse"
p4405
sI4467
S"'conditional_content_removal"
p4406
sI4468
S'http_cookies'
p4407
sI4469
S'_cookie_encodes_correctly'
p4408
sI4470
S'value_encode'
p4409
sI4471
S'\\\\073'
p4410
sI4472
S'_tc'
p4411
sI4473
S"'foo"
p4412
sI4474
S'bar'
p4413
sI4475
S'_cookie_allows_colon_in_names'
p4414
sI4476
S'cookieerror'
p4415
sI4477
S'morsel'
p4416
sI4478
S'\\\\054'
p4417
sI4479
S'\\\\'
p4418
sI4480
S'rawdata'
p4419
sI4481
S'bad_cookies'
p4420
sI4482
S'_basecookie__set'
p4421
sI4483
S'real_value'
p4422
sI4484
S'coded_value'
p4423
sI4485
S"'bad_cookies"
p4424
sI4486
S'basecookie'
p4425
sI4487
S'cookiedict'
p4426
sI4488
S'binascii'
p4427
sI4489
S'unescape_entities'
p4428
sI4490
S'uploadhandler'
p4429
sI4491
S"'multipartparser"
p4430
sI4492
S"'multipartparsererror"
p4431
sI4493
S"'inputstreamexhausted"
p4432
sI4494
S'multipartparsererror'
p4433
sI4495
S'inputstreamexhausted'
p4434
sI4496
S'_base64_decode_error'
p4435
sI4497
S'multipartparser'
p4436
sI4498
S'upload_handlers'
p4437
sI4499
S"'http_content_type"
p4438
sI4500
S"'multipart/"
p4439
sI4501
S'content-type'
p4440
sI4502
S"'boundary"
p4441
sI4503
S'valid_boundary'
p4442
sI4504
S"'http_content_length"
p4443
sI4505
S'_boundary'
p4444
sI4506
S'_input_data'
p4445
sI4507
S'possible_sizes'
p4446
sI4508
S'_chunk_size'
p4447
sI4509
S'31'
p4448
sI4510
S'_content_length'
p4449
sI4511
S'_upload_handlers'
p4450
sI4512
S'mutable'
p4451
sI4513
S'lazystream'
p4452
sI4514
S'chunkiter'
p4453
sI4515
S'old_field_name'
p4454
sI4516
S'counters'
p4455
sI4517
S'item_type'
p4456
sI4518
S'meta_data'
p4457
sI4519
S'field_stream'
p4458
sI4520
S'handle_file_complete'
p4459
sI4521
S'disposition'
p4460
sI4522
S'transfer_encoding'
p4461
sI4523
S"'replace"
p4462
sI4524
S"'base64"
p4463
sI4525
S'ie_sanitize'
p4464
sI4526
S"'content-length"
p4465
sI4527
S'over_bytes'
p4466
sI4528
S'over_chunk'
p4467
sI4529
S'chunk_length'
p4468
sI4530
S'_close_files'
p4469
sI4531
S'exhaust'
p4470
sI4532
S'retval'
p4471
sI4533
S'file_obj'
p4472
sI4534
S'rfind'
p4473
sI4535
S'producer'
p4474
sI4536
S'_producer'
p4475
sI4537
S'_empty'
p4476
sI4538
S'_leftover'
p4477
sI4539
S'position'
p4478
sI4540
S'_remaining'
p4479
sI4541
S'_unget_history'
p4480
sI4542
S"'remaining"
p4481
sI4543
S'never'
p4482
sI4544
S'go'
p4483
sI4545
S'negative'
p4484
sI4546
S'emitting'
p4485
sI4547
S'unget'
p4486
sI4548
S'_update_unget_history'
p4487
sI4549
S'num_bytes'
p4488
sI4550
S'49'
p4489
sI4551
S'number_equal'
p4490
sI4552
S'current_number'
p4491
sI4553
S'stuck'
p4492
sI4554
S'happen'
p4493
sI4555
S'malicious'
p4494
sI4556
S'activity'
p4495
sI4557
S'report'
p4496
sI4558
S'developers'
p4497
sI4559
S'flo'
p4498
sI4560
S'interboundaryiter'
p4499
sI4561
S'boundaryiter'
p4500
sI4562
S'_done'
p4501
sI4563
S'_rollback'
p4502
sI4564
S'unused_char'
p4503
sI4565
S'rollback'
p4504
sI4566
S'bytes_read'
p4505
sI4567
S'_find_boundary'
p4506
sI4568
S'eof'
p4507
sI4569
S'last'
p4508
sI4570
S'stream_or_iterable'
p4509
sI4571
S'16384'
p4510
sI4572
S'passed'
p4511
sI4573
S'non-iterable'
p4512
sI4574
S'__'
p4513
sI4575
S'parse_boundary_stream'
p4514
sI4576
S'max_header_size'
p4515
sI4577
S'header_end'
p4516
sI4578
S"b'\\r\\n\\r\\n"
p4517
sI4579
S'_parse_header'
p4518
sI4580
S'main_value_pair'
p4519
sI4581
S'outdict'
p4520
sI4582
S"b'\\r\\n"
p4521
sI4583
S'_separator'
p4522
sI4584
S'boundarystream'
p4523
sI4585
S'sub_stream'
p4524
sI4586
S'plist'
p4525
sI4587
S'_parse_header_params'
p4526
sI4588
S'pdict'
p4527
sI4589
S"b'\\\\\\\\"
p4528
sI4590
S"b'\\\\"
p4529
sI4591
S'pprint'
p4530
sI4592
S'pformat'
p4531
sI4593
S'immutablelist'
p4532
sI4594
S'parse_qsl'
p4533
sI4595
S'urlencode'
p4534
sI4596
S'quote'
p4535
sI4597
S'raise_error'
p4536
sI4598
S'absolute_http_url_re'
p4537
sI4599
S'^https'
p4538
sI4600
S'host_validation_re'
p4539
sI4601
S'+|\\'
p4540
sI4602
S'get_host'
p4541
sI4603
S'use_x_forwarded_host'
p4542
sI4604
S"'http_x_forwarded_host"
p4543
sI4605
S"'http_host"
p4544
sI4606
S"'server_name"
p4545
sI4607
S'server_port'
p4546
sI4608
S"'server_port"
p4547
sI4609
S"'443"
p4548
sI4610
S'is_secure'
p4549
sI4611
S"'80"
p4550
sI4612
S'split_domain_port'
p4551
sI4613
S'validate_host'
p4552
sI4614
S'http_host'
p4553
sI4615
S'according'
p4554
sI4616
S'rfc'
p4555
sI4617
S'1034/1035'
p4556
sI4618
S'get_full_path'
p4557
sI4619
S'get_signed_cookie'
p4558
sI4620
S'cookie_value'
p4559
sI4621
S'build_absolute_uri'
p4560
sI4622
S"'//"
p4561
sI4623
S'current_uri'
p4562
sI4624
S'secure_proxy_ssl_header'
p4563
sI4625
S'two'
p4564
sI4626
S'is_ajax'
p4565
sI4627
S"'http_x_requested_with"
p4566
sI4628
S"'xmlhttprequest"
p4567
sI4629
S'setter'
p4568
sI4630
S"'_get"
p4569
sI4631
S'_get'
p4570
sI4632
S'_initialize_handlers'
p4571
sI4633
S'file_upload_handlers'
p4572
sI4634
S'processed'
p4573
sI4635
S'parse_file_upload'
p4574
sI4636
S'post_data'
p4575
sI4637
S'alter'
p4576
sI4638
S"'_body"
p4577
sI4639
S'reading'
p4578
sI4640
S'_body'
p4579
sI4641
S'_mark_post_parse_error'
p4580
sI4642
S"'post"
p4581
sI4643
S"'multipart/form-data"
p4582
sI4644
S"'application/x-www-form-urlencoded"
p4583
sI4645
S'from_iterable'
p4584
sI4646
S'lists'
p4585
sI4647
S'buf'
p4586
sI4648
S'_mutable'
p4587
sI4649
S'query_string'
p4588
sI4650
S'keep_blank_values'
p4589
sI4651
S'_assert_mutable'
p4590
sI4652
S'immutable'
p4591
sI4653
S'bytes_to_text'
p4592
sI4654
S'__delitem__'
p4593
sI4655
S'__copy__'
p4594
sI4656
S'iterlists'
p4595
sI4657
S'setlist'
p4596
sI4658
S'list_'
p4597
sI4659
S'elt'
p4598
sI4660
S'setlistdefault'
p4599
sI4661
S'default_list'
p4600
sI4662
S'popitem'
p4601
sI4663
S'safe'
p4602
sI4664
S'path_override'
p4603
sI4665
S'get_override'
p4604
sI4666
S'post_override'
p4605
sI4667
S'cookies_override'
p4606
sI4668
S'meta_override'
p4607
sI4669
S's\\npath'
p4608
sI4670
S'\\nget'
p4609
sI4671
S'\\npost'
p4610
sI4672
S'\\ncookies'
p4611
sI4673
S'\\nmeta'
p4612
sI4674
S'cookie_date'
p4613
sI4675
S'urlparse'
p4614
sI4676
S'100'
p4615
sI4677
S"'continue"
p4616
sI4678
S'101'
p4617
sI4679
S"'switching"
p4618
sI4680
S'protocols'
p4619
sI4681
S'102'
p4620
sI4682
S'200'
p4621
sI4683
S"'ok"
p4622
sI4684
S'201'
p4623
sI4685
S'202'
p4624
sI4686
S"'accepted"
p4625
sI4687
S'203'
p4626
sI4688
S"'non-authoritative"
p4627
sI4689
S'204'
p4628
sI4690
S'205'
p4629
sI4691
S"'reset"
p4630
sI4692
S'206'
p4631
sI4693
S"'partial"
p4632
sI4694
S'207'
p4633
sI4695
S"'multi-status"
p4634
sI4696
S'208'
p4635
sI4697
S"'already"
p4636
sI4698
S'reported'
p4637
sI4699
S'226'
p4638
sI4700
S"'im"
p4639
sI4701
S"'multiple"
p4640
sI4702
S'301'
p4641
sI4703
S"'moved"
p4642
sI4704
S'permanently'
p4643
sI4705
S'302'
p4644
sI4706
S"'found"
p4645
sI4707
S'303'
p4646
sI4708
S"'see"
p4647
sI4709
S'304'
p4648
sI4710
S'305'
p4649
sI4711
S'306'
p4650
sI4712
S"'reserved"
p4651
sI4713
S'307'
p4652
sI4714
S"'temporary"
p4653
sI4715
S'redirect'
p4654
sI4716
S'308'
p4655
sI4717
S"'permanent"
p4656
sI4718
S'401'
p4657
sI4719
S"'unauthorized"
p4658
sI4720
S'402'
p4659
sI4721
S"'payment"
p4660
sI4722
S'405'
p4661
sI4723
S'406'
p4662
sI4724
S'acceptable'
p4663
sI4725
S'407'
p4664
sI4726
S"'proxy"
p4665
sI4727
S'authentication'
p4666
sI4728
S'408'
p4667
sI4729
S'409'
p4668
sI4730
S"'conflict"
p4669
sI4731
S'410'
p4670
sI4732
S"'gone"
p4671
sI4733
S'411'
p4672
sI4734
S'412'
p4673
sI4735
S"'precondition"
p4674
sI4736
S'413'
p4675
sI4737
S'entity'
p4676
sI4738
S'too'
p4677
sI4739
S'large'
p4678
sI4740
S'414'
p4679
sI4741
S"'request-uri"
p4680
sI4742
S'415'
p4681
sI4743
S"'unsupported"
p4682
sI4744
S'416'
p4683
sI4745
S"'requested"
p4684
sI4746
S'satisfiable'
p4685
sI4747
S'417'
p4686
sI4748
S"'expectation"
p4687
sI4749
S'418'
p4688
sI4750
S"'m"
p4689
sI4751
S'teapot'
p4690
sI4752
S'422'
p4691
sI4753
S"'unprocessable"
p4692
sI4754
S'423'
p4693
sI4755
S"'locked"
p4694
sI4756
S'424'
p4695
sI4757
S'dependency'
p4696
sI4758
S'426'
p4697
sI4759
S"'upgrade"
p4698
sI4760
S'428'
p4699
sI4761
S'429'
p4700
sI4762
S"'too"
p4701
sI4763
S'many'
p4702
sI4764
S'requests'
p4703
sI4765
S'431'
p4704
sI4766
S'501'
p4705
sI4767
S'implemented'
p4706
sI4768
S'502'
p4707
sI4769
S'gateway'
p4708
sI4770
S'503'
p4709
sI4771
S"'service"
p4710
sI4772
S'unavailable'
p4711
sI4773
S'504'
p4712
sI4774
S"'gateway"
p4713
sI4775
S'505'
p4714
sI4776
S'506'
p4715
sI4777
S"'variant"
p4716
sI4778
S'negotiates'
p4717
sI4779
S'507'
p4718
sI4780
S"'insufficient"
p4719
sI4781
S'508'
p4720
sI4782
S"'loop"
p4721
sI4783
S'510'
p4722
sI4784
S'extended'
p4723
sI4785
S'511'
p4724
sI4786
S"'network"
p4725
sI4787
S'httpresponsebase'
p4726
sI4788
S'reason'
p4727
sI4789
S'_headers'
p4728
sI4790
S'_charset'
p4729
sI4791
S'default_content_type'
p4730
sI4792
S'serialize_headers'
p4731
sI4793
S'to_bytes'
p4732
sI4794
S'__bytes__'
p4733
sI4795
S'_convert_to_charset'
p4734
sI4796
S'mime_encode'
p4735
sI4797
S'maxlinelen'
p4736
sI4798
S'__getstate__'
p4737
sI4799
S"'cookies"
p4738
sI4800
S'__setstate__'
p4739
sI4801
S'has_header'
p4740
sI4802
S'alternate'
p4741
sI4803
S'set_cookie'
p4742
sI4804
S'secure'
p4743
sI4805
S'httponly'
p4744
sI4806
S'utc'
p4745
sI4807
S'timedelta'
p4746
sI4808
S'days'
p4747
sI4809
S'86400'
p4748
sI4810
S"'max-age"
p4749
sI4811
S"'secure"
p4750
sI4812
S"'httponly"
p4751
sI4813
S'set_signed_cookie'
p4752
sI4814
S'delete_cookie'
p4753
sI4815
S"'thu"
p4754
sI4816
S'01-jan-1970'
p4755
sI4817
S'00:00:00'
p4756
sI4818
S'gmt'
p4757
sI4819
S'make_bytes'
p4758
sI4820
S"'content-encoding"
p4759
sI4821
S'closable'
p4760
sI4822
S'its'
p4761
sI4823
S'streaming'
p4762
sI4824
S'_container'
p4763
sI4825
S"'close"
p4764
sI4826
S'streaming_content'
p4765
sI4827
S'`content`'
p4766
sI4828
S'`streaming_content`'
p4767
sI4829
S'_iterator'
p4768
sI4830
S'httpresponseredirectbase'
p4769
sI4831
S'allowed_schemes'
p4770
sI4832
S'redirect_to'
p4771
sI4833
S'parsed'
p4772
sI4834
S'unsafe'
p4773
sI4835
S'permitted_methods'
p4774
sI4836
S"'allow"
p4775
sI4837
S'encoder'
p4776
sI4838
S'non-dict'
p4777
sI4839
S"'serialized"
p4778
sI4840
S"'application/json"
p4779
sI4841
S"'head"
p4780
sI4842
S'allowed_variable_chars'
p4781
sI4843
S'block_tag_end'
p4782
sI4844
S'block_tag_start'
p4783
sI4845
S'comment_tag_end'
p4784
sI4846
S'comment_tag_start'
p4785
sI4847
S'filter_argument_separator'
p4786
sI4848
S'filter_separator'
p4787
sI4849
S'single_brace_end'
p4788
sI4850
S'single_brace_start'
p4789
sI4851
S'token_block'
p4790
sI4852
S'token_comment'
p4791
sI4853
S'token_text'
p4792
sI4854
S'token_var'
p4793
sI4855
S'translator_comment_mark'
p4794
sI4856
S'unknown_source'
p4795
sI4857
S'variable_attribute_separator'
p4796
sI4858
S'variable_tag_end'
p4797
sI4859
S'variable_tag_start'
p4798
sI4860
S'filter_re'
p4799
sI4861
S'tag_re'
p4800
sI4862
S'contextpopexception'
p4801
sI4863
S'invalidtemplatelibrary'
p4802
sI4864
S'templatedoesnotexist'
p4803
sI4865
S'templateencodingerror'
p4804
sI4866
S'templatesyntaxerror'
p4805
sI4867
S'variabledoesnotexist'
p4806
sI4868
S'filterexpression'
p4807
sI4869
S'lexer'
p4808
sI4870
S'nodelist'
p4809
sI4871
S'requestcontext'
p4810
sI4872
S'origin'
p4811
sI4873
S'stringorigin'
p4812
sI4874
S'textnode'
p4813
sI4875
S'tokenparser'
p4814
sI4876
S'variablenode'
p4815
sI4877
S'constant_string'
p4816
sI4878
S'filter_raw_string'
p4817
sI4879
S'compile_string'
p4818
sI4880
S'resolve_variable'
p4819
sI4881
S'unescape_string_literal'
p4820
sI4882
S'generic_tag_compiler'
p4821
sI4883
S'add_to_builtins'
p4822
sI4884
S'builtins'
p4823
sI4885
S'get_library'
p4824
sI4886
S'get_templatetags_modules'
p4825
sI4887
S'import_library'
p4826
sI4888
S'libraries'
p4827
sI4889
S"'context"
p4828
sI4890
S"'requestcontext"
p4829
sI4891
S"'compile_string"
p4830
sI4892
S'inspect'
p4831
sI4893
S'getargspec'
p4832
sI4894
S'getcallargs'
p4833
sI4895
S'basecontext'
p4834
sI4896
S'smart_split'
p4835
sI4897
S'pgettext_lazy'
p4836
sI4898
S'safedata'
p4837
sI4899
S'escapedata'
p4838
sI4900
S'mark_for_escaping'
p4839
sI4901
S'template_localtime'
p4840
sI4902
S'token_mapping'
p4841
sI4903
S"'var"
p4842
sI4904
S"'block"
p4843
sI4905
S"'comment"
p4844
sI4906
S"'|"
p4845
sI4907
S"'translators"
p4846
sI4908
S"'abcdefghijklmnopqrstuvwxyz"
p4847
sI4909
S"'abcdefghijklmnopqrstuvwxyz0123456789_"
p4848
sI4910
S's|'
p4849
sI4911
S'invalid_var_format_string'
p4850
sI4912
S'reload'
p4851
sI4913
S'template_string'
p4852
sI4914
S'constructed'
p4853
sI4915
S'template_debug'
p4854
sI4916
S'subnode'
p4855
sI4917
S'_render'
p4856
sI4918
S'render_context'
p4857
sI4919
S'push'
p4858
sI4920
S'debuglexer'
p4859
sI4921
S'debugparser'
p4860
sI4922
S'lexer_class'
p4861
sI4923
S'parser_class'
p4862
sI4924
S'tokenize'
p4863
sI4925
S'token_type'
p4864
sI4926
S'lineno'
p4865
sI4927
S'token_name'
p4866
sI4928
S'split_contents'
p4867
sI4929
S'bit'
p4868
sI4930
S'sentinal'
p4869
sI4931
S'trans_bit'
p4870
sI4932
S'verbatim'
p4871
sI4933
S'in_tag'
p4872
sI4934
S'create_token'
p4873
sI4935
S'token_string'
p4874
sI4936
S'block_content'
p4875
sI4937
S"'verbatim"
p4876
sI4938
S"'end"
p4877
sI4939
S'tokens'
p4878
sI4940
S'filters'
p4879
sI4941
S'lib'
p4880
sI4942
S'add_library'
p4881
sI4943
S'parse_until'
p4882
sI4944
S'create_nodelist'
p4883
sI4945
S'next_token'
p4884
sI4946
S'extend_nodelist'
p4885
sI4947
S'empty_variable'
p4886
sI4948
S'filter_expression'
p4887
sI4949
S'compile_filter'
p4888
sI4950
S'compile_filter_error'
p4889
sI4951
S'var_node'
p4890
sI4952
S'create_variable_node'
p4891
sI4953
S'empty_block_tag'
p4892
sI4954
S'prepend_token'
p4893
sI4955
S'enter_command'
p4894
sI4956
S'compile_func'
p4895
sI4957
S'invalid_block_tag'
p4896
sI4958
S'compiled_result'
p4897
sI4959
S'compile_function_error'
p4898
sI4960
S'exit_command'
p4899
sI4961
S'unclosed_block_tag'
p4900
sI4962
S'skip_past'
p4901
sI4963
S'endtag'
p4902
sI4964
S'must_be_first'
p4903
sI4965
S'contains_nontext'
p4904
sI4966
S'block'
p4905
sI4967
S'unclosed'
p4906
sI4968
S'delete_first_token'
p4907
sI4969
S'find_filter'
p4908
sI4970
S'filter_name'
p4909
sI4971
S'backout'
p4910
sI4972
S'tagname'
p4911
sI4973
S'back'
p4912
sI4974
S'called'
p4913
sI4975
S'parsing'
p4914
sI4976
S"'\\t"
p4915
sI4977
S'next_space_index'
p4916
sI4978
S'searching'
p4917
sI4979
S'unexpected'
p4918
sI4980
S'column'
p4919
sI4981
S'res'
p4920
sI4982
S'i18n_open'
p4921
sI4983
S'strdq'
p4922
sI4984
S'i18n_close'
p4923
sI4985
S'strsq'
p4924
sI4986
S"'strdq"
p4925
sI4987
S"'strsq"
p4926
sI4988
S"^'\\\\"
p4927
sI4989
S"'i18n_open"
p4928
sI4990
S"'i18n_close"
p4929
sI4991
S'constant'
p4930
sI4992
S'var_chars'
p4931
sI4993
S'+|'
p4932
sI4994
S'filter_sep'
p4933
sI4995
S's\\s*'
p4934
sI4996
S'\\w+'
p4935
sI4997
S'arg_sep'
p4936
sI4998
S'constant_arg'
p4937
sI4999
S'var_arg'
p4938
sI5000
S"'constant"
p4939
sI5001
S"'num"
p4940
sI5002
S'-+\\'
p4941
sI5003
S'\\d\\'
p4942
sI5004
S"'var_chars"
p4943
sI5005
S'\\w\\'
p4944
sI5006
S"'filter_sep"
p4945
sI5007
S"'arg_sep"
p4946
sI5008
S'finditer'
p4947
sI5009
S'var_obj'
p4948
sI5010
S'upto'
p4949
sI5011
S'filter_func'
p4950
sI5012
S'args_check'
p4951
sI5013
S'ignore_failures'
p4952
sI5014
S'template_string_if_invalid'
p4953
sI5015
S'arg_vals'
p4954
sI5016
S"'expects_localtime"
p4955
sI5017
S"'needs_autoescape"
p4956
sI5018
S'new_obj'
p4957
sI5019
S"'is_safe"
p4958
sI5020
S'plen'
p4959
sI5021
S"'_decorated_function"
p4960
sI5022
S'varargs'
p4961
sI5023
S'varkw'
p4962
sI5024
S'alen'
p4963
sI5025
S'dlen'
p4964
sI5026
S'literal'
p4965
sI5027
S'translate'
p4966
sI5028
S'message_context'
p4967
sI5029
S"'e"
p4968
sI5030
S'variables'
p4969
sI5031
S'attributes'
p4970
sI5032
S'begin'
p4971
sI5033
S'_resolve_lookup'
p4972
sI5034
S"'do_not_call_in_templates"
p4973
sI5035
S"'alters_data"
p4974
sI5036
S"'silent_variable_failure"
p4975
sI5037
S'child_nodelists'
p4976
sI5038
S"'nodelist"
p4977
sI5039
S'get_nodes_by_type'
p4978
sI5040
S'render_node'
p4979
sI5041
S'render_value_in_context'
p4980
sI5042
S'kwarg_re'
p4981
sI5043
S'token_kwargs'
p4982
sI5044
S'support_legacy'
p4983
sI5045
S'kwarg_format'
p4984
sI5046
S"'as"
p4985
sI5047
S'parse_bits'
p4986
sI5048
S'takes_context'
p4987
sI5049
S'decorated'
p4988
sI5050
S'unhandled_params'
p4989
sI5051
S'kwarg'
p4990
sI5052
S'param'
p4991
sI5053
S'received'
p4992
sI5054
S'positional'
p4993
sI5055
S'receive'
p4994
sI5056
S'node_class'
p4995
sI5057
S'taghelpernode'
p4996
sI5058
S'get_resolved_arguments'
p4997
sI5059
S'resolved_args'
p4998
sI5060
S'resolved_kwargs'
p4999
sI5061
S'compile_function'
p5000
sI5062
S'tag_function'
p5001
sI5063
S'dec'
p5002
sI5064
S'unsupported'
p5003
sI5065
S'_decorated_function'
p5004
sI5066
S'filter_function'
p5005
sI5067
S'_filter_name'
p5006
sI5068
S'simple_tag'
p5007
sI5069
S'simplenode'
p5008
sI5070
S'function_name'
p5009
sI5071
S'__doc__'
p5010
sI5072
S'assignment_tag'
p5011
sI5073
S'assignmentnode'
p5012
sI5074
S'target_var'
p5013
sI5075
S'second'
p5014
sI5076
S'inclusion_tag'
p5015
sI5077
S'context_class'
p5016
sI5078
S'inclusionnode'
p5017
sI5079
S'_dict'
p5018
sI5080
S'get_template'
p5019
sI5081
S'select_template'
p5020
sI5082
S'new_context'
p5021
sI5083
S"'autoescape"
p5022
sI5084
S"'current_app"
p5023
sI5085
S"'use_l10n"
p5024
sI5086
S"'use_tz"
p5025
sI5087
S'csrf_token'
p5026
sI5088
S'is_library_missing'
p5027
sI5089
S'taglib_module'
p5028
sI5090
S'raised'
p5029
sI5091
S'templatetags_modules'
p5030
sI5092
S'_templatetags_modules'
p5031
sI5093
S'templatetags_modules_candidates'
p5032
sI5094
S'templatetags'
p5033
sI5095
S'templatetag_module'
p5034
sI5096
S'library_name'
p5035
sI5097
S'tried_modules'
p5036
sI5098
S'defaulttags'
p5037
sI5099
S'defaultfilters'
p5038
sI5100
S'loader_tags'
p5039
sI5101
S'_standard_context_processors'
p5040
sI5102
S'_builtin_context_processors'
p5041
sI5103
S'context_processors'
p5042
sI5104
S'contextdict'
p5043
sI5105
S'dicts'
p5044
sI5106
S'dict_'
p5045
sI5107
S'_reset_dicts'
p5046
sI5108
S'rendercontext'
p5047
sI5109
S'other_dict'
p5048
sI5110
S"'__getitem__"
p5049
sI5111
S"'other_dict"
p5050
sI5112
S'mapping'
p5051
sI5113
S'dictionary-like'
p5052
sI5114
S'get_standard_processors'
p5053
sI5115
S'processors'
p5054
sI5116
S'collect'
p5055
sI5117
S'template_context_processors'
p5056
sI5118
S'processor'
p5057
sI5119
S'last_bit'
p5058
sI5120
S'command_stack'
p5059
sI5121
S'source_error'
p5060
sI5122
S'django_template_source'
p5061
sI5123
S'debugnodelist'
p5062
sI5124
S'debugvariablenode'
p5063
sI5125
S'looking'
p5064
sI5126
S"'django_template_source"
p5065
sI5127
S'random_module'
p5066
sI5128
S'invalidoperation'
p5067
sI5129
S'round_half_up'
p5068
sI5130
S'wraps'
p5069
sI5131
S'dateformat'
p5070
sI5132
S'escapejs'
p5071
sI5133
S'urlize'
p5072
sI5134
S'_urlize'
p5073
sI5135
S'linebreaks'
p5074
sI5136
S'strip_tags'
p5075
sI5137
S'avoid_wrapping'
p5076
sI5138
S'remove_tags'
p5077
sI5139
S'truncator'
p5078
sI5140
S'wrap'
p5079
sI5141
S'phone2numeric'
p5080
sI5142
S'timesince'
p5081
sI5143
S'timeuntil'
p5082
sI5144
S'normalize_newlines'
p5083
sI5145
S'slugify'
p5084
sI5146
S'_slugify'
p5085
sI5147
S'stringfilter'
p5086
sI5148
S'_dec'
p5087
sI5149
S'is_safe'
p5088
sI5150
S'addslashes'
p5089
sI5151
S"'\\\\\\\\"
p5090
sI5152
S'escapejs_filter'
p5091
sI5153
S'pos_inf'
p5092
sI5154
S'1e200'
p5093
sI5155
S'neg_inf'
p5094
sI5156
S'nan'
p5095
sI5157
S'special_floats'
p5096
sI5158
S'floatformat'
p5097
sI5159
S'input_val'
p5098
sI5160
S'overflowerror'
p5099
sI5161
S'number_format'
p5100
sI5162
S'tupl'
p5101
sI5163
S'units'
p5102
sI5164
S'prec'
p5103
sI5165
S'quantize'
p5104
sI5166
S'iriencode'
p5105
sI5167
S'needs_autoescape'
p5106
sI5168
S'linenumbers'
p5107
sI5169
S'make_list'
p5108
sI5170
S'stringformat'
p5109
sI5171
S'truncatechars'
p5110
sI5172
S'truncatechars_html'
p5111
sI5173
S'truncatewords'
p5112
sI5174
S'words'
p5113
sI5175
S'truncatewords_html'
p5114
sI5176
S"'safe"
p5115
sI5177
S'nofollow'
p5116
sI5178
S'urlizetrunc'
p5117
sI5179
S'trim_url_limit'
p5118
sI5180
S'wordcount'
p5119
sI5181
S'wordwrap'
p5120
sI5182
S'ljust'
p5121
sI5183
S'rjust'
p5122
sI5184
S'center'
p5123
sI5185
S'cut'
p5124
sI5186
S'escape_filter'
p5125
sI5187
S'force_escape'
p5126
sI5188
S'linebreaks_filter'
p5127
sI5189
S'linebreaksbr'
p5128
sI5190
S'safeseq'
p5129
sI5191
S'removetags'
p5130
sI5192
S'striptags'
p5131
sI5193
S'dictsort'
p5132
sI5194
S'dictsortreversed'
p5133
sI5195
S'length_is'
p5134
sI5196
S'slice_filter'
p5135
sI5197
S'unordered_list'
p5136
sI5198
S'escaper'
p5137
sI5199
S'convert_old_style_list'
p5138
sI5200
S'first_item'
p5139
sI5201
S'second_item'
p5140
sI5202
S'old_style_list'
p5141
sI5203
S'new_second_item'
p5142
sI5204
S'sublist'
p5143
sI5205
S'_helper'
p5144
sI5206
S'tabs'
p5145
sI5207
S'list_length'
p5146
sI5208
S'sublist_item'
p5147
sI5209
S'next_item'
p5148
sI5210
S'converted'
p5149
sI5211
S'get_digit'
p5150
sI5212
S'expects_localtime'
p5151
sI5213
S'timesince_filter'
p5152
sI5214
S'timeuntil_filter'
p5153
sI5215
S'default_if_none'
p5154
sI5216
S'divisibleby'
p5155
sI5217
S'yesno'
p5156
sI5218
S'maybe'
p5157
sI5219
S'filesizeformat'
p5158
sI5220
S'filesize_number_format'
p5159
sI5221
S'round'
p5160
sI5222
S'kb'
p5161
sI5223
S'mb'
p5162
sI5224
S'gb'
p5163
sI5225
S'pb'
p5164
sI5226
S'pluralize'
p5165
sI5227
S'singular_suffix'
p5166
sI5228
S'plural_suffix'
p5167
sI5229
S'phone2numeric_filter'
p5168
sI5230
S'formatting'
p5169
sI5231
S'groupby'
p5170
sI5232
S'cycle'
p5171
sI5233
S'itertools_cycle'
p5172
sI5234
S'smartif'
p5173
sI5235
S'ifparser'
p5174
sI5236
S'autoescapecontrolnode'
p5175
sI5237
S'old_setting'
p5176
sI5238
S'commentnode'
p5177
sI5239
S'csrftokennode'
p5178
sI5240
S"'csrfmiddlewaretoken"
p5179
sI5241
S'usually'
p5180
sI5242
S'cyclenode'
p5181
sI5243
S'cyclevars'
p5182
sI5244
S'variable_name'
p5183
sI5245
S'silent'
p5184
sI5246
S'cycle_iter'
p5185
sI5247
S'debugnode'
p5186
sI5248
S"'\\n\\n"
p5187
sI5249
S'filternode'
p5188
sI5250
S'filter_expr'
p5189
sI5251
S'firstofnode'
p5190
sI5252
S'fornode'
p5191
sI5253
S"'nodelist_loop"
p5192
sI5254
S"'nodelist_empty"
p5193
sI5255
S'loopvars'
p5194
sI5256
S'is_reversed'
p5195
sI5257
S'nodelist_loop'
p5196
sI5258
S'nodelist_empty'
p5197
sI5259
S'reversed_text'
p5198
sI5260
S'tail_len'
p5199
sI5261
S"'forloop"
p5200
sI5262
S'parentloop'
p5201
sI5263
S"'__len__"
p5202
sI5264
S'len_values'
p5203
sI5265
S'num_loopvars'
p5204
sI5266
S'unpack'
p5205
sI5267
S'loop_dict'
p5206
sI5268
S"'parentloop"
p5207
sI5269
S"'counter0"
p5208
sI5270
S"'counter"
p5209
sI5271
S"'revcounter"
p5210
sI5272
S"'revcounter0"
p5211
sI5273
S"'first"
p5212
sI5274
S"'last"
p5213
sI5275
S'pop_context'
p5214
sI5276
S'len_item'
p5215
sI5277
S'loop'
p5216
sI5278
S'unpacked_vars'
p5217
sI5279
S'ifchangednode'
p5218
sI5280
S"'nodelist_true"
p5219
sI5281
S"'nodelist_false"
p5220
sI5282
S'nodelist_true'
p5221
sI5283
S'nodelist_false'
p5222
sI5284
S'varlist'
p5223
sI5285
S'_varlist'
p5224
sI5286
S'state_frame'
p5225
sI5287
S'_get_context_stack_frame'
p5226
sI5288
S'nodelist_true_output'
p5227
sI5289
S'compare_to'
p5228
sI5290
S'ifequalnode'
p5229
sI5291
S'var1'
p5230
sI5292
S'var2'
p5231
sI5293
S'negate'
p5232
sI5294
S'val1'
p5233
sI5295
S'val2'
p5234
sI5296
S'ifnode'
p5235
sI5297
S'conditions_nodelists'
p5236
sI5298
S'condition'
p5237
sI5299
S'eval'
p5238
sI5300
S'regroupnode'
p5239
sI5301
S'var_name'
p5240
sI5302
S'resolve_expression'
p5241
sI5303
S'obj_list'
p5242
sI5304
S"'grouper"
p5243
sI5305
S'include_is_allowed'
p5244
sI5306
S'filepath'
p5245
sI5307
S'allowed_include_roots'
p5246
sI5308
S'ssinode'
p5247
sI5309
S'include'
p5248
sI5310
S'had'
p5249
sI5311
S'loadnode'
p5250
sI5312
S'nownode'
p5251
sI5313
S'format_string'
p5252
sI5314
S'spacelessnode'
p5253
sI5315
S'strip_spaces_between_tags'
p5254
sI5316
S'templatetagnode'
p5255
sI5317
S"'openblock"
p5256
sI5318
S"'closeblock"
p5257
sI5319
S"'openvariable"
p5258
sI5320
S"'closevariable"
p5259
sI5321
S"'openbrace"
p5260
sI5322
S"'closebrace"
p5261
sI5323
S"'opencomment"
p5262
sI5324
S"'closecomment"
p5263
sI5325
S'tagtype'
p5264
sI5326
S'urlnode'
p5265
sI5327
S'asvar'
p5266
sI5328
S'verbatimnode'
p5267
sI5329
S'widthrationode'
p5268
sI5330
S'val_expr'
p5269
sI5331
S'max_expr'
p5270
sI5332
S'max_width'
p5271
sI5333
S'widthratio'
p5272
sI5334
S'final'
p5273
sI5335
S'ratio'
p5274
sI5336
S'zerodivisionerror'
p5275
sI5337
S'withnode'
p5276
sI5338
S'extra_context'
p5277
sI5339
S'exactly'
p5278
sI5340
S"'on"
p5279
sI5341
S"'off"
p5280
sI5342
S"'endautoescape"
p5281
sI5343
S'comment'
p5282
sI5344
S"'endcomment"
p5283
sI5345
S"'cycle"
p5284
sI5346
S"'_namedcyclenodes"
p5285
sI5347
S'cycles'
p5286
sI5348
S'_namedcyclenodes'
p5287
sI5349
S'as_form'
p5288
sI5350
S"'silent"
p5289
sI5351
S'flag'
p5290
sI5352
S"'filter"
p5291
sI5353
S'do_filter'
p5292
sI5354
S'rest'
p5293
sI5355
S'var|'
p5294
sI5356
S'unused'
p5295
sI5357
S"'_filter_name"
p5296
sI5358
S"'escape"
p5297
sI5359
S'permitted'
p5298
sI5360
S"'endfilter"
p5299
sI5361
S'firstof'
p5300
sI5362
S"'firstof"
p5301
sI5363
S'do_for'
p5302
sI5364
S'four'
p5303
sI5365
S"'reversed"
p5304
sI5366
S'in_index'
p5305
sI5367
S"'endfor"
p5306
sI5368
S'do_ifequal'
p5307
sI5369
S'end_tag'
p5308
sI5370
S"'else"
p5309
sI5371
S'ifequal'
p5310
sI5372
S'ifnotequal'
p5311
sI5373
S'templateliteral'
p5312
sI5374
S'display'
p5313
sI5375
S'templateifparser'
p5314
sI5376
S'template_parser'
p5315
sI5377
S'create_var'
p5316
sI5378
S'do_if'
p5317
sI5379
S"'elif"
p5318
sI5380
S"'endif"
p5319
sI5381
S'ifchanged'
p5320
sI5382
S"'endifchanged"
p5321
sI5383
S'ssi'
p5322
sI5384
S"'ssi"
p5323
sI5385
S"'parsed"
p5324
sI5386
S'optional'
p5325
sI5387
S'taglib'
p5326
sI5388
S'temp_lib'
p5327
sI5389
S"'now"
p5328
sI5390
S'regroup'
p5329
sI5391
S"'regroup"
p5330
sI5392
S'five'
p5331
sI5393
S"'by"
p5332
sI5394
S'next-to-last'
p5333
sI5395
S'spaceless'
p5334
sI5396
S"'endspaceless"
p5335
sI5397
S'templatetag'
p5336
sI5398
S"'templatetag"
p5337
sI5399
S'malformed'
p5338
sI5400
S"'endverbatim"
p5339
sI5401
S'this_value_expr'
p5340
sI5402
S'max_value_expr'
p5341
sI5403
S'as_'
p5342
sI5404
S'expecting'
p5343
sI5405
S'three'
p5344
sI5406
S'do_with'
p5345
sI5407
S'remaining_bits'
p5346
sI5408
S'assignment'
p5347
sI5409
S"'endwith"
p5348
sI5410
S'template_source_loaders'
p5349
sI5411
S'baseloader'
p5350
sI5412
S'is_usable'
p5351
sI5413
S'template_name'
p5352
sI5414
S'template_dirs'
p5353
sI5415
S'load_template'
p5354
sI5416
S'display_name'
p5355
sI5417
S'load_template_source'
p5356
sI5418
S'make_origin'
p5357
sI5419
S'get_template_from_string'
p5358
sI5420
S'loaderorigin'
p5359
sI5421
S'loadname'
p5360
sI5422
S'find_template_loader'
p5361
sI5423
S'templateloader'
p5362
sI5424
S"'load_template_source"
p5363
sI5425
S'function-based'
p5364
sI5426
S'template_loaders'
p5365
sI5427
S'includes'
p5366
sI5428
S'installation'
p5367
sI5429
S'consider'
p5368
sI5430
S'removing'
p5369
sI5431
S"'loader"
p5370
sI5432
S'find_template'
p5371
sI5433
S'loaders'
p5372
sI5434
S'loader_name'
p5373
sI5435
S'render_to_string'
p5374
sI5436
S'dictionary'
p5375
sI5437
S'context_instance'
p5376
sI5438
S'template_name_list'
p5377
sI5439
S'not_found'
p5378
sI5440
S'block_context_key'
p5379
sI5441
S"'block_context"
p5380
sI5442
S'extendserror'
p5381
sI5443
S'blockcontext'
p5382
sI5444
S'blocks'
p5383
sI5445
S'add_blocks'
p5384
sI5446
S'get_block'
p5385
sI5447
S'blocknode'
p5386
sI5448
S'block_context'
p5387
sI5449
S'extendsnode'
p5388
sI5450
S'parent_name'
p5389
sI5451
S'extends'
p5390
sI5452
S'get_parent'
p5391
sI5453
S"'extends"
p5392
sI5454
S'compiled_parent'
p5393
sI5455
S'includenode'
p5394
sI5456
S"'extra_context"
p5395
sI5457
S'isolated_context'
p5396
sI5458
S"'isolated_context"
p5397
sI5459
S'do_block'
p5398
sI5460
S'block_name'
p5399
sI5461
S'__loaded_blocks'
p5400
sI5462
S'appears'
p5401
sI5463
S"'endblock"
p5402
sI5464
S'endblock'
p5403
sI5465
S'acceptable_endblocks'
p5404
sI5466
S'do_extends'
p5405
sI5467
S'same'
p5406
sI5468
S"'include"
p5407
sI5469
S'do_include'
p5408
sI5470
S"'than"
p5409
sI5471
S'namemap'
p5410
sI5472
S'calculate_app_template_dirs'
p5411
sI5473
S'fs_encoding'
p5412
sI5474
S'getfilesystemencoding'
p5413
sI5475
S'getdefaultencoding'
p5414
sI5476
S'app_template_dirs'
p5415
sI5477
S"'templates"
p5416
sI5478
S'get_template_sources'
p5417
sI5479
S'template_cache'
p5418
sI5480
S'find_template_cache'
p5419
sI5481
S'_loaders'
p5420
sI5482
S'_cached_loaders'
p5421
sI5483
S'cached_loaders'
p5422
sI5484
S'sha1'
p5423
sI5485
S'template_tuple'
p5424
sI5486
S'pkg_resources'
p5425
sI5487
S'resource_string'
p5426
sI5488
S'pkg_name'
p5427
sI5489
S"'templates/"
p5428
sI5490
S'resource'
p5429
sI5491
S"'egg"
p5430
sI5492
S'change'
p5431
sI5493
S'contentnotrenderederror'
p5432
sI5494
S'simpletemplateresponse'
p5433
sI5495
S'rendering_attrs'
p5434
sI5496
S"'template_name"
p5435
sI5497
S"'context_data"
p5436
sI5498
S"'_post_render_callbacks"
p5437
sI5499
S'context_data'
p5438
sI5500
S'_post_render_callbacks'
p5439
sI5501
S'_is_rendered'
p5440
sI5502
S'obj_dict'
p5441
sI5503
S"'rendered"
p5442
sI5504
S'resolve_template'
p5443
sI5505
S'resolve_context'
p5444
sI5506
S'rendered_content'
p5445
sI5507
S'add_post_render_callback'
p5446
sI5508
S'post_callback'
p5447
sI5509
S'newretval'
p5448
sI5510
S'is_rendered'
p5449
sI5511
S'iterated'
p5450
sI5512
S'accessed'
p5451
sI5513
S'fset'
p5452
sI5514
S'templateresponse'
p5453
sI5515
S"'_current_app"
p5454
sI5516
S'_current_app'
p5455
sI5517
S'tokenbase'
p5456
sI5518
S'nud'
p5457
sI5519
S'led'
p5458
sI5520
S'left'
p5459
sI5521
S'infix'
p5460
sI5522
S'bp'
p5461
sI5523
S'lbp'
p5462
sI5524
S'operators'
p5463
sI5525
S'op'
p5464
sI5526
S'endtoken'
p5465
sI5527
S'mapped_tokens'
p5466
sI5528
S'translate_token'
p5467
sI5529
S'current_token'
p5468
sI5530
S'rbp'
p5469
sI5531
S'lib2to3'
p5470
sI5532
S'fixer_base'
p5471
sI5533
S'fixer_util'
p5472
sI5534
S'find_indentation'
p5473
sI5535
S'syms'
p5474
sI5536
S'touch_import'
p5475
sI5537
S'pgen2'
p5476
sI5538
S'pytree'
p5477
sI5539
S'leaf'
p5478
sI5540
S'fixunicode'
p5479
sI5541
S'basefix'
p5480
sI5542
S'bm_compatible'
p5481
sI5543
S'classdef'
p5482
sI5544
S'any+'
p5483
sI5545
S'any*'
p5484
sI5546
S'funcdef'
p5485
sI5547
S"'def"
p5486
sI5548
S'unifunc'
p5487
sI5549
S"'__unicode__"
p5488
sI5550
S'parameters'
p5489
sI5551
S'transform'
p5490
sI5552
S'strfunc'
p5491
sI5553
S'clone'
p5492
sI5554
S'decorator'
p5493
sI5555
S"'python_2_unicode_compatible"
p5494
sI5556
S'windowserror'
p5495
sI5557
S'getcwdu'
p5496
sI5558
S'final_path'
p5497
sI5559
S'joined'
p5498
sI5560
S'located'
p5499
sI5561
S'outside'
p5500
sI5562
S'component'
p5501
sI5563
S'exctype'
p5502
sI5564
S"'access"
p5503
sI5565
S's_iread'
p5504
sI5566
S's_iwrite'
p5505
sI5567
S'symlinks_supported'
p5506
sI5568
S'tmpdir'
p5507
sI5569
S'original_path'
p5508
sI5570
S"'original"
p5509
sI5571
S'symlink_path'
p5510
sI5572
S"'symlink"
p5511
sI5573
S'symlink'
p5512
sI5574
S'rmdir'
p5513
sI5575
S'tarfile'
p5514
sI5576
S'unrecognizedarchiveformat'
p5515
sI5577
S'to_path'
p5516
sI5578
S'_archive'
p5517
sI5579
S'_archive_cls'
p5518
sI5580
S'recognized'
p5519
sI5581
S'tail_ext'
p5520
sI5582
S'extension_map'
p5521
sI5583
S'basearchive'
p5522
sI5584
S'split_leading_dir'
p5523
sI5585
S'lstrip'
p5524
sI5586
S'has_leading_dir'
p5525
sI5587
S'common_prefix'
p5526
sI5588
S'tararchive'
p5527
sI5589
S'members'
p5528
sI5590
S'member'
p5529
sI5591
S'getmembers'
p5530
sI5592
S"'pax_global_header"
p5531
sI5593
S'leading'
p5532
sI5594
S'extracted'
p5533
sI5595
S'extractfile'
p5534
sI5596
S'outfile'
p5535
sI5597
S'copyfileobj'
p5536
sI5598
S'ziparchive'
p5537
sI5599
S'printdir'
p5538
sI5600
S'gz'
p5539
sI5601
S'tgz'
p5540
sI5602
S'tz2'
p5541
sI5603
S'_thread'
p5542
sI5604
S'_dummy_thread'
p5543
sI5605
S'termios'
p5544
sI5606
S'use_inotify'
p5545
sI5607
S'pyinotify'
p5546
sI5608
S'inotifywrapper'
p5547
sI5609
S'inotify_init'
p5548
sI5610
S'run_reloader'
p5549
sI5611
S'file_modified'
p5550
sI5612
S'i18n_modified'
p5551
sI5613
S'_mtimes'
p5552
sI5614
S'_win'
p5553
sI5615
S'win32'
p5554
sI5616
S'_error_files'
p5555
sI5617
S'_cached_modules'
p5556
sI5618
S'_cached_filenames'
p5557
sI5619
S'gen_filenames'
p5558
sI5620
S'only_new'
p5559
sI5621
S'module_values'
p5560
sI5622
S'new_modules'
p5561
sI5623
S'new_filenames'
p5562
sI5624
S"'__file__"
p5563
sI5625
S'locale_filenames'
p5564
sI5626
S'reset_translations'
p5565
sI5627
S'trans_real'
p5566
sI5628
S'_translations'
p5567
sI5629
S'_default'
p5568
sI5630
S'_active'
p5569
sI5631
S'inotify_code_changed'
p5570
sI5632
S'eventhandler'
p5571
sI5633
S'processevent'
p5572
sI5634
S'modified_code'
p5573
sI5635
S'process_default'
p5574
sI5636
S'wm'
p5575
sI5637
S'watchmanager'
p5576
sI5638
S'notifier'
p5577
sI5639
S'update_watch'
p5578
sI5640
S"'handles_files"
p5579
sI5641
S'mask'
p5580
sI5642
S'in_modify'
p5581
sI5643
S'in_delete'
p5582
sI5644
S'in_attrib'
p5583
sI5645
S'in_moved_from'
p5584
sI5646
S'in_moved_to'
p5585
sI5647
S'in_create'
p5586
sI5648
S'add_watch'
p5587
sI5649
S'check_events'
p5588
sI5650
S'read_events'
p5589
sI5651
S'process_events'
p5590
sI5652
S'code_changed'
p5591
sI5653
S'mtime'
p5592
sI5654
S'st_ctime'
p5593
sI5655
S'check_errors'
p5594
sI5656
S'wrapper'
p5595
sI5657
S'indentationerror'
p5596
sI5658
S'syntaxerror'
p5597
sI5659
S'et'
p5598
sI5660
S'ev'
p5599
sI5661
S'extract_tb'
p5600
sI5662
S'ensure_echo_on'
p5601
sI5663
S'stdin'
p5602
sI5664
S'attr_list'
p5603
sI5665
S'tcgetattr'
p5604
sI5666
S'echo'
p5605
sI5667
S"'sigttou"
p5606
sI5668
S'old_handler'
p5607
sI5669
S'sigttou'
p5608
sI5670
S'sig_ign'
p5609
sI5671
S'tcsetattr'
p5610
sI5672
S'tcsanow'
p5611
sI5673
S'reloader_thread'
p5612
sI5674
S'sleep'
p5613
sI5675
S'restart_with_reloader'
p5614
sI5676
S'executable'
p5615
sI5677
S"'-w"
p5616
sI5678
S'warnoptions'
p5617
sI5679
S'new_environ'
p5618
sI5680
S'run_main'
p5619
sI5681
S'exit_code'
p5620
sI5682
S'spawnve'
p5621
sI5683
S'p_wait'
p5622
sI5684
S'python_reloader'
p5623
sI5685
S'main_func'
p5624
sI5686
S'start_new_thread'
p5625
sI5687
S'kill'
p5626
sI5688
S'jython_reloader'
p5627
sI5689
S'_systemrestart'
p5628
sI5690
S'systemrestart'
p5629
sI5691
S'reloader'
p5630
sI5692
S'wrapped_main_func'
p5631
sI5693
S'base2_alphabet'
p5632
sI5694
S"'01"
p5633
sI5695
S'base16_alphabet'
p5634
sI5696
S"'0123456789abcdef"
p5635
sI5697
S'base56_alphabet'
p5636
sI5698
S"'23456789abcdefghjklmnpqrstuvwxyzabcdefghijkmnpqrstuvwxyz"
p5637
sI5699
S'base36_alphabet'
p5638
sI5700
S"'0123456789abcdefghijklmnopqrstuvwxyz"
p5639
sI5701
S'base62_alphabet'
p5640
sI5702
S"'0123456789abcdefghijklmnopqrstuvwxyzabcdefghijklmnopqrstuvwxyz"
p5641
sI5703
S'base64_alphabet'
p5642
sI5704
S"'-_"
p5643
sI5705
S'baseconverter'
p5644
sI5706
S'decimal_digits'
p5645
sI5707
S"'0123456789"
p5646
sI5708
S"'sign"
p5647
sI5709
S'neg'
p5648
sI5710
S'convert'
p5649
sI5711
S'from_digits'
p5650
sI5712
S'to_digits'
p5651
sI5713
S'base2'
p5652
sI5714
S'base16'
p5653
sI5715
S'base36'
p5654
sI5716
S'base56'
p5655
sI5717
S'http_date'
p5656
sI5718
S'cc_delim_re'
p5657
sI5719
S"r'\\s*"
p5658
sI5720
S'patch_cache_control'
p5659
sI5721
S'dictitem'
p5660
sI5722
S'dictvalue'
p5661
sI5723
S"'cache-control"
p5662
sI5724
S'el'
p5663
sI5725
S"'max_age"
p5664
sI5726
S"'private"
p5665
sI5727
S"'public"
p5666
sI5728
S'get_max_age'
p5667
sI5729
S'_to_tuple'
p5668
sI5730
S'_set_response_etag'
p5669
sI5731
S"'etag"
p5670
sI5732
S'patch_response_headers'
p5671
sI5733
S'cache_timeout'
p5672
sI5734
S'cache_middleware_seconds'
p5673
sI5735
S'use_etags'
p5674
sI5736
S"'last-modified"
p5675
sI5737
S'add_never_cache_headers'
p5676
sI5738
S'patch_vary_headers'
p5677
sI5739
S'newheaders'
p5678
sI5740
S'adds'
p5679
sI5741
S'vary'
p5680
sI5742
S"'vary"
p5681
sI5743
S'vary_headers'
p5682
sI5744
S'existing_headers'
p5683
sI5745
S'additional_headers'
p5684
sI5746
S'newheader'
p5685
sI5747
S'has_vary_header'
p5686
sI5748
S'header_query'
p5687
sI5749
S'_i18n_cache_key_suffix'
p5688
sI5750
S'tz_name'
p5689
sI5751
S'_generate_cache_key'
p5690
sI5752
S'headerlist'
p5691
sI5753
S'ctx'
p5692
sI5754
S"'views"
p5693
sI5755
S'decorators'
p5694
sI5756
S'cache_page'
p5695
sI5757
S'_generate_cache_header_key'
p5696
sI5758
S'cache_header'
p5697
sI5759
S'get_cache_key'
p5698
sI5760
S"'get"
p5699
sI5761
S'cache_middleware_key_prefix'
p5700
sI5762
S'cache_middleware_alias'
p5701
sI5763
S'learn_cache_key'
p5702
sI5764
S'is_accept_language_redundant'
p5703
sI5765
S"'accept_language"
p5704
sI5766
S"'http_"
p5705
sI5767
S"'luhn"
p5706
sI5768
S'luhn_odd_lookup'
p5707
sI5769
S'luhn'
p5708
sI5770
S'evens'
p5709
sI5771
S'odds'
p5710
sI5772
S'hmac'
p5711
sI5773
S'struct'
p5712
sI5774
S'systemrandom'
p5713
sI5775
S'using_sysrandom'
p5714
sI5776
S'pseudo-random'
p5715
sI5777
S'falling'
p5716
sI5778
S'mersenne'
p5717
sI5779
S'twister'
p5718
sI5780
S'key_salt'
p5719
sI5781
S'secret'
p5720
sI5782
S'digestmod'
p5721
sI5783
S'allowed_chars'
p5722
sI5784
S'seed'
p5723
sI5785
S'sha256'
p5724
sI5786
S'getstate'
p5725
sI5787
S'compare_digest'
p5726
sI5788
S'_bin_to_long'
p5727
sI5789
S'hexlify'
p5728
sI5790
S'16'
p5729
sI5791
S'_long_to_bin'
p5730
sI5792
S'hex_format_string'
p5731
sI5793
S'unhexlify'
p5732
sI5794
S'pbkdf2_hmac'
p5733
sI5795
S'pbkdf2'
p5734
sI5796
S'iterations'
p5735
sI5797
S'dklen'
p5736
sI5798
S'hlen'
p5737
sI5799
S'digest_size'
p5738
sI5800
S"'dklen"
p5739
sI5801
S'big'
p5740
sI5802
S'ix'
p5741
sI5803
S'outer'
p5742
sI5804
S'block_size'
p5743
sI5805
S"b'\\x00"
p5744
sI5806
S'trans_36'
p5745
sI5807
S'trans_5c'
p5746
sI5808
S'pack'
p5747
sI5809
S'j'
sI5810
S'dig1'
p5748
sI5811
S'dig2'
p5749
sI5812
S'buffering'
p5750
sI5813
S"'posix"
p5751
sI5814
S'out_log'
p5752
sI5815
S"'/dev/null"
p5753
sI5816
S'err_log'
p5754
sI5817
S'0o022'
p5755
sI5818
S'fork'
p5756
sI5819
S'setsid'
p5757
sI5820
S'chdir'
p5758
sI5821
S'si'
p5759
sI5822
S"'a+"
p5760
sI5823
S'se'
p5761
sI5824
S'dup2'
p5762
sI5825
S'nulldevice'
p5763
sI5826
S"'`mergedict`"
p5764
sI5827
S'`dict'
p5765
sI5828
S'`'
sI5829
S"'instead"
p5766
sI5830
S'_iteritems'
p5767
sI5831
S'seen'
p5768
sI5832
S'_iterkeys'
p5769
sI5833
S'_itervalues'
p5770
sI5834
S'iterkeys'
p5771
sI5835
S'itervalues'
p5772
sI5836
S'dictreprs'
p5773
sI5837
S'sorteddict'
p5774
sI5838
S'keyorder'
p5775
sI5839
S'super_set'
p5776
sI5840
S'__reversed__'
p5777
sI5841
S'orderedset'
p5778
sI5842
S'iterable'
p5779
sI5843
S'discard'
p5780
sI5844
S'multivaluedictkeyerror'
p5781
sI5845
S'key_to_list_mapping'
p5782
sI5846
S"'_data"
p5783
sI5847
S'_iterlists'
p5784
sI5848
S'value_list'
p5785
sI5849
S"'immutablelist"
p5786
sI5850
S'complain'
p5787
sI5851
S'wargs'
p5788
sI5852
S'__delslice__'
p5789
sI5853
S'__iadd__'
p5790
sI5854
S'__imul__'
p5791
sI5855
S'__setslice__'
p5792
sI5856
S'dictwrapper'
p5793
sI5857
S'use_func'
p5794
sI5858
S'calendar'
p5795
sI5859
S'months_3'
p5796
sI5860
S'months_alt'
p5797
sI5861
S'months_ap'
p5798
sI5862
S'weekdays'
p5799
sI5863
S'weekdays_abbr'
p5800
sI5864
S'get_default_timezone'
p5801
sI5865
S're_formatchars'
p5802
sI5866
S'aabbcddeeffgghhiijllmmnnooprssttuuwwyyzz'
p5803
sI5867
S're_escaped'
p5804
sI5868
S"r'\\\\"
p5805
sI5869
S'formatter'
p5806
sI5870
S'formatstr'
p5807
sI5871
S'pieces'
p5808
sI5872
S'piece'
p5809
sI5873
S"r'\\1"
p5810
sI5874
S'timeformat'
p5811
sI5875
S'hour'
p5812
sI5876
S'11'
p5813
sI5877
S"'p"
p5814
sI5878
S"'pm"
p5815
sI5879
S"'am"
p5816
sI5880
S'future'
p5817
sI5881
S'release'
p5818
sI5882
S"'tzinfo"
p5819
sI5883
S'tzname'
p5820
sI5884
S'minute'
p5821
sI5885
S'02d'
p5822
sI5886
S'z'
sI5887
S'3600'
p5823
sI5888
S'60'
p5824
sI5889
S"'midnight"
p5825
sI5890
S"'noon"
p5826
sI5891
S"'o"
p5827
sI5892
S'06d'
p5828
sI5893
S'offset'
p5829
sI5894
S'utcoffset'
p5830
sI5895
S'year_days'
p5831
sI5896
S'59'
p5832
sI5897
S'90'
p5833
sI5898
S'120'
p5834
sI5899
S'151'
p5835
sI5900
S'181'
p5836
sI5901
S'212'
p5837
sI5902
S'243'
p5838
sI5903
S'273'
p5839
sI5904
S'334'
p5840
sI5905
S'weekday'
p5841
sI5906
S'isleap'
p5842
sI5907
S'isocalendar'
p5843
sI5908
S"'d"
p5844
sI5909
S"'th"
p5845
sI5910
S"'st"
p5846
sI5911
S"'nd"
p5847
sI5912
S"'rd"
p5848
sI5913
S'monthrange'
p5849
sI5914
S'timegm'
p5850
sI5915
S'utctimetuple'
p5851
sI5916
S'mktime'
p5852
sI5917
S'timetuple'
p5853
sI5918
S'week_number'
p5854
sI5919
S'jan1_weekday'
p5855
sI5920
S'day_of_year'
p5856
sI5921
S'53'
p5857
sI5922
S'52'
p5858
sI5923
S'366'
p5859
sI5924
S'365'
p5860
sI5925
S'doy'
p5861
sI5926
S'df'
p5862
sI5927
S'tf'
p5863
sI5928
S'get_fixed_timezone'
p5864
sI5929
S'date_re'
p5865
sI5930
S'time_re'
p5866
sI5931
S'datetime_re'
p5867
sI5932
S'z|'
p5868
sI5933
S'+-'
p5869
sI5934
S'parse_date'
p5870
sI5935
S'kw'
p5871
sI5936
S'parse_time'
p5872
sI5937
S"'microsecond"
p5873
sI5938
S'parse_datetime'
p5874
sI5939
S'offset_mins'
p5875
sI5940
S"'monday"
p5876
sI5941
S"'tuesday"
p5877
sI5942
S"'wednesday"
p5878
sI5943
S"'thursday"
p5879
sI5944
S"'friday"
p5880
sI5945
S"'saturday"
p5881
sI5946
S"'sunday"
p5882
sI5947
S"'mon"
p5883
sI5948
S"'tue"
p5884
sI5949
S"'wed"
p5885
sI5950
S"'fri"
p5886
sI5951
S"'sat"
p5887
sI5952
S"'sun"
p5888
sI5953
S'weekdays_rev'
p5889
sI5954
S"'january"
p5890
sI5955
S"'february"
p5891
sI5956
S"'march"
p5892
sI5957
S"'april"
p5893
sI5958
S"'june"
p5894
sI5959
S"'july"
p5895
sI5960
S"'august"
p5896
sI5961
S"'september"
p5897
sI5962
S"'october"
p5898
sI5963
S"'november"
p5899
sI5964
S"'december"
p5900
sI5965
S"'jan"
p5901
sI5966
S"'feb"
p5902
sI5967
S"'mar"
p5903
sI5968
S"'apr"
p5904
sI5969
S"'jun"
p5905
sI5970
S"'jul"
p5906
sI5971
S"'aug"
p5907
sI5972
S"'sep"
p5908
sI5973
S"'oct"
p5909
sI5974
S"'nov"
p5910
sI5975
S"'dec"
p5911
sI5976
S'months_3_rev'
p5912
sI5977
S"'abbrev"
p5913
sI5978
S"'sept"
p5914
sI5979
S"'alt"
p5915
sI5980
S'real_date'
p5916
sI5981
S'real_datetime'
p5917
sI5982
S'new_datetime'
p5918
sI5983
S'_illegal_formatting'
p5919
sI5984
S'^|'
p5920
sI5985
S'sy'
p5921
sI5986
S'_findall'
p5922
sI5987
S'substr'
p5923
sI5988
S'sites'
p5924
sI5989
S'dt'
p5925
sI5990
S'1900'
p5926
sI5991
S'illegal_formatting'
p5927
sI5992
S'2000'
p5928
sI5993
S'off'
p5929
sI5994
S'28'
p5930
sI5995
S's1'
p5931
sI5996
S'sites1'
p5932
sI5997
S's2'
p5933
sI5998
S'sites2'
p5934
sI5999
S'site'
p5935
sI6000
S'syear'
p5936
sI6001
S'04d'
p5937
sI6002
S'_constructor_args'
p5938
sI6003
S'update_wrapper'
p5939
sI6004
S'wrapper_assignments'
p5940
sI6005
S'classonlymethod'
p5941
sI6006
S'__get__'
p5942
sI6007
S'owner'
p5943
sI6008
S'method_decorator'
p5944
sI6009
S'_wrapper'
p5945
sI6010
S'bound_func'
p5946
sI6011
S'args2'
p5947
sI6012
S'kwargs2'
p5948
sI6013
S'assigned'
p5949
sI6014
S'available_attrs'
p5950
sI6015
S"'method_decorator"
p5951
sI6016
S'decorator_from_middleware_with_args'
p5952
sI6017
S'middleware_class'
p5953
sI6018
S'make_middleware_decorator'
p5954
sI6019
S'decorator_from_middleware'
p5955
sI6020
S'_make_decorator'
p5956
sI6021
S'm_args'
p5957
sI6022
S'm_kwargs'
p5958
sI6023
S'_decorator'
p5959
sI6024
S'_wrapped_view'
p5960
sI6025
S'pendingdeprecationwarning'
p5961
sI6026
S'deprecationwarning'
p5962
sI6027
S'removedinnextversionwarning'
p5963
sI6028
S'warn_about_renamed_method'
p5964
sI6029
S'old_method_name'
p5965
sI6030
S'new_method_name'
p5966
sI6031
S'deprecation_warning'
p5967
sI6032
S'wrapped'
p5968
sI6033
S's`'
p5969
sI6034
S'getmro'
p5970
sI6035
S'renamed_method'
p5971
sI6036
S'old_method'
p5972
sI6037
S'new_method'
p5973
sI6038
S'dictconfig'
p5974
sI6039
S'a-z_'
p5975
sI6040
S'a-z0-9_'
p5976
sI6041
S'valid_ident'
p5977
sI6042
S'_checklevel'
p5978
sI6043
S'rv'
p5979
sI6044
S'_levelnames'
p5980
sI6045
S"'valid"
p5981
sI6046
S'convertingdict'
p5982
sI6047
S'configurator'
p5983
sI6048
S'convertinglist'
p5984
sI6049
S'convertingtuple'
p5985
sI6050
S'baseconfigurator'
p5986
sI6051
S'convert_pattern'
p5987
sI6052
S'word_pattern'
p5988
sI6053
S"r'^\\s*"
p5989
sI6054
S'dot_pattern'
p5990
sI6055
S"r'^\\"
p5991
sI6056
S'index_pattern'
p5992
sI6057
S'\\s*\\'
p5993
sI6058
S'digit_pattern'
p5994
sI6059
S"r'^\\d+"
p5995
sI6060
S'value_converters'
p5996
sI6061
S"'ext"
p5997
sI6062
S"'ext_convert"
p5998
sI6063
S"'cfg"
p5999
sI6064
S"'cfg_convert"
p6000
sI6065
S'importer'
p6001
sI6066
S'__import__'
p6002
sI6067
S'frag'
p6003
sI6068
S'__cause__'
p6004
sI6069
S'__traceback__'
p6005
sI6070
S'ext_convert'
p6006
sI6071
S'cfg_convert'
p6007
sI6072
S"'unable"
p6008
sI6073
S"'suffix"
p6009
sI6074
S'configure_custom'
p6010
sI6075
S"'__call__"
p6011
sI6076
S"'classtype"
p6012
sI6077
S'classtype'
p6013
sI6078
S'props'
p6014
sI6079
S'dictconfigurator'
p6015
sI6080
S'incremental'
p6016
sI6081
S"'incremental"
p6017
sI6082
S'empty_dict'
p6018
sI6083
S'_acquirelock'
p6019
sI6084
S"'handlers"
p6020
sI6085
S'_handlers'
p6021
sI6086
S'handler_config'
p6022
sI6087
S'setlevel'
p6023
sI6088
S'standarderror'
p6024
sI6089
S'loggers'
p6025
sI6090
S"'loggers"
p6026
sI6091
S'configure_logger'
p6027
sI6092
S"'root"
p6028
sI6093
S'configure_root'
p6029
sI6094
S"'logger"
p6030
sI6095
S'disable_existing'
p6031
sI6096
S"'disable_existing_loggers"
p6032
sI6097
S'_handlerlist'
p6033
sI6098
S'formatters'
p6034
sI6099
S"'formatters"
p6035
sI6100
S'configure_formatter'
p6036
sI6101
S"'formatter"
p6037
sI6102
S"'filters"
p6038
sI6103
S'configure_filter'
p6039
sI6104
S'configure_handler'
p6040
sI6105
S'loggerdict'
p6041
sI6106
S'child_loggers'
p6042
sI6107
S'pflen'
p6043
sI6108
S'num_existing'
p6044
sI6109
S'notset'
p6045
sI6110
S'propagate'
p6046
sI6111
S'disabled'
p6047
sI6112
S'_releaselock'
p6048
sI6113
S'factory'
p6049
sI6114
S'te'
p6050
sI6115
S"'fmt"
p6051
sI6116
S'dfmt'
p6052
sI6117
S"'datefmt"
p6053
sI6118
S'add_filters'
p6054
sI6119
S'filterer'
p6055
sI6120
S'addfilter'
p6056
sI6121
S'issubclass'
p6057
sI6122
S'memoryhandler'
p6058
sI6123
S"'target"
p6059
sI6124
S'smtphandler'
p6060
sI6125
S"'mailhost"
p6061
sI6126
S'sysloghandler'
p6062
sI6127
S"'address"
p6063
sI6128
S"'strm"
p6064
sI6129
S'setformatter'
p6065
sI6130
S'add_handlers'
p6066
sI6131
S'common_logger_config'
p6067
sI6132
S"'propagate"
p6068
sI6133
S'dictconfigclass'
p6069
sI6134
S'promise'
p6070
sI6135
S'djangounicodedecodeerror'
p6071
sI6136
S'original'
p6072
sI6137
S"'__str__"
p6073
sI6138
S'__unicode__'
p6074
sI6139
S"'strict"
p6075
sI6140
S'_protected_types'
p6076
sI6141
S'smart_bytes'
p6077
sI6142
S'memoryview'
p6078
sI6143
S'smart_str'
p6079
sI6144
S'smart_unicode'
p6080
sI6145
S'force_unicode'
p6081
sI6146
S'iri'
p6082
sI6147
S"'~"
p6083
sI6148
S'/~'
p6084
sI6149
S'get_system_encoding'
p6085
sI6150
S'getdefaultlocale'
p6086
sI6151
S'rfc2822_date'
p6087
sI6152
S'dow'
p6088
sI6153
S'time_str'
p6089
sI6154
S'24'
p6090
sI6155
S'divmod'
p6091
sI6156
S'+03d'
p6092
sI6157
S"'-0000"
p6093
sI6158
S'rfc3339_date'
p6094
sI6159
S'y-'
p6095
sI6160
S'm-'
p6096
sI6161
S'get_tag_uri'
p6097
sI6162
S'hostname'
p6098
sI6163
S'syndicationfeed'
p6099
sI6164
S'author_email'
p6100
sI6165
S'author_name'
p6101
sI6166
S'author_link'
p6102
sI6167
S'subtitle'
p6103
sI6168
S'categories'
p6104
sI6169
S'feed_url'
p6105
sI6170
S'feed_copyright'
p6106
sI6171
S'feed_guid'
p6107
sI6172
S'ttl'
p6108
sI6173
S'to_unicode'
p6109
sI6174
S"'title"
p6110
sI6175
S"'link"
p6111
sI6176
S"'description"
p6112
sI6177
S"'language"
p6113
sI6178
S"'author_email"
p6114
sI6179
S"'author_name"
p6115
sI6180
S"'author_link"
p6116
sI6181
S"'subtitle"
p6117
sI6182
S"'categories"
p6118
sI6183
S"'feed_url"
p6119
sI6184
S"'feed_copyright"
p6120
sI6185
S"'ttl"
p6121
sI6186
S'add_item'
p6122
sI6187
S'pubdate'
p6123
sI6188
S'comments'
p6124
sI6189
S'unique_id'
p6125
sI6190
S'unique_id_is_permalink'
p6126
sI6191
S'enclosure'
p6127
sI6192
S'item_copyright'
p6128
sI6193
S'updateddate'
p6129
sI6194
S"'pubdate"
p6130
sI6195
S"'updateddate"
p6131
sI6196
S"'comments"
p6132
sI6197
S"'unique_id"
p6133
sI6198
S"'unique_id_is_permalink"
p6134
sI6199
S"'enclosure"
p6135
sI6200
S"'item_copyright"
p6136
sI6201
S'num_items'
p6137
sI6202
S'root_attributes'
p6138
sI6203
S'add_root_elements'
p6139
sI6204
S'item_attributes'
p6140
sI6205
S'add_item_elements'
p6141
sI6206
S'writestring'
p6142
sI6207
S'latest_post_date'
p6143
sI6208
S'latest_date'
p6144
sI6209
S'date_keys'
p6145
sI6210
S'date_key'
p6146
sI6211
S'item_date'
p6147
sI6212
S'mime_type'
p6148
sI6213
S'rssfeed'
p6149
sI6214
S"'application/rss+xml"
p6150
sI6215
S'rss'
p6151
sI6216
S'rss_attributes'
p6152
sI6217
S'channel'
p6153
sI6218
S'write_items'
p6154
sI6219
S'endchannelelement'
p6155
sI6220
S'_version'
p6156
sI6221
S'xmlns'
p6157
sI6222
S'atom'
p6158
sI6223
S'w3'
p6159
sI6224
S'org/2005/atom'
p6160
sI6225
S"'item"
p6161
sI6226
S'cat'
p6162
sI6227
S'category'
p6163
sI6228
S'copyright'
p6164
sI6229
S'lastbuilddate'
p6165
sI6230
S'rssuserland091feed'
p6166
sI6231
S'91'
p6167
sI6232
S'rss201rev2feed'
p6168
sI6233
S'author'
p6169
sI6234
S'dc'
p6170
sI6235
S'creator'
p6171
sI6236
S'//purl'
p6172
sI6237
S'org/dc/elements/1'
p6173
sI6238
S'1/'
p6174
sI6239
S'guid_attrs'
p6175
sI6240
S"'ispermalink"
p6176
sI6241
S'guid'
p6177
sI6242
S'atom1feed'
p6178
sI6243
S"'application/atom+xml"
p6179
sI6244
S"'feed"
p6180
sI6245
S'lang'
p6181
sI6246
S'updated'
p6182
sI6247
S'uri'
p6183
sI6248
S'term'
p6184
sI6249
S'rights'
p6185
sI6250
S"'published"
p6186
sI6251
S"'updated"
p6187
sI6252
S'summary'
p6188
sI6253
S'defaultfeed'
p6189
sI6254
S'unicodedata'
p6190
sI6255
S'numberformat'
p6191
sI6256
S'to_locale'
p6192
sI6257
S'check_for_language'
p6193
sI6258
S'_format_cache'
p6194
sI6259
S'_format_modules_cache'
p6195
sI6260
S'iso_input_formats'
p6196
sI6261
S'reset_format_cache'
p6197
sI6262
S'iter_format_modules'
p6198
sI6263
S'format_module_path'
p6199
sI6264
S'format_locations'
p6200
sI6265
S'loc'
p6201
sI6266
S'get_format_modules'
p6202
sI6267
S'format_type'
p6203
sI6268
S'cached'
p6204
sI6269
S'iso_input'
p6205
sI6270
S"'time_format"
p6206
sI6271
S'decimal_pos'
p6207
sI6272
S'force_grouping'
p6208
sI6273
S"'decimal_separator"
p6209
sI6274
S"'number_grouping"
p6210
sI6275
S"'thousand_separator"
p6211
sI6276
S"'datetime_format"
p6212
sI6277
S'decimal_separator'
p6213
sI6278
S'use_thousand_separator'
p6214
sI6279
S'thousand_sep'
p6215
sI6280
S'replacement'
p6216
sI6281
S"'nfkd"
p6217
sI6282
S'copyreg'
p6218
sI6283
S'curry'
p6219
sI6284
S'_curried_func'
p6220
sI6285
S'_curried'
p6221
sI6286
S'moreargs'
p6222
sI6287
S'morekwargs'
p6223
sI6288
S'memoize'
p6224
sI6289
S'num_args'
p6225
sI6290
S'mem_args'
p6226
sI6291
S'resultclasses'
p6227
sI6292
S'__proxy__'
p6228
sI6293
S'__dispatch'
p6229
sI6294
S'__args'
p6230
sI6295
S'__kw'
p6231
sI6296
S'__prepare_class__'
p6232
sI6297
S'__reduce__'
p6233
sI6298
S'_lazy_proxy_unpickle'
p6234
sI6299
S'resultclass'
p6235
sI6300
S'type_'
p6236
sI6301
S'mro'
p6237
sI6302
S'meth'
p6238
sI6303
S'__promise__'
p6239
sI6304
S'_delegate_bytes'
p6240
sI6305
S'_delegate_text'
p6241
sI6306
S'__text_cast'
p6242
sI6307
S'__bytes_cast'
p6243
sI6308
S'funcname'
p6244
sI6309
S'__wrapper__'
p6245
sI6310
S'__cast'
p6246
sI6311
S'__hash__'
p6247
sI6312
S'hash'
p6248
sI6313
S'__mod__'
p6249
sI6314
S'rhs'
p6250
sI6315
S'allow_lazy'
p6251
sI6316
S'new_method_proxy'
p6252
sI6317
S'__newobj__'
p6253
sI6318
S'__reduce_ex__'
p6254
sI6319
S'proto'
p6255
sI6320
S'_reconstructor'
p6256
sI6321
S'__dir__'
p6257
sI6322
S'attrgetter'
p6258
sI6323
S'ne'
p6259
sI6324
S'getitem'
p6260
sI6325
S'setitem'
p6261
sI6326
S'delitem'
p6262
sI6327
S'_super'
p6263
sI6328
S'simplelazyobject'
p6264
sI6329
S"'_setupfunc"
p6265
sI6330
S'_setupfunc'
p6266
sI6331
S'repr_attr'
p6267
sI6332
S'lazy_property'
p6268
sI6333
S'fget'
p6269
sI6334
S'fdel'
p6270
sI6335
S'doc'
p6271
sI6336
S'instance_type'
p6272
sI6337
S'partition'
p6273
sI6338
S'predicate'
p6274
sI6339
S"'__lt__"
p6275
sI6340
S"'__gt__"
p6276
sI6341
S"'__le__"
p6277
sI6342
S"'__ge__"
p6278
sI6343
S'roots'
p6279
sI6344
S"'must"
p6280
sI6345
S'ordering'
p6281
sI6346
S'opname'
p6282
sI6347
S'opfunc'
p6283
sI6348
S'unquote'
p6284
sI6349
S'html_parser'
p6285
sI6350
S'htmlparser'
p6286
sI6351
S'htmlparseerror'
p6287
sI6352
S'trailing_punctuation'
p6288
sI6353
S"'\\"
p6289
sI6354
S'wrapping_punctuation'
p6290
sI6355
S'lt'
p6291
sI6356
S'gt'
p6292
sI6357
S'dots'
p6293
sI6358
S'middot'
p6294
sI6359
S"'\\u2022"
p6295
sI6360
S'149'
p6296
sI6361
S'bull'
p6297
sI6362
S'8226'
p6298
sI6363
S'unencoded_ampersands_re'
p6299
sI6364
S'\\w+|'
p6300
sI6365
S'word_split_re'
p6301
sI6366
S'simple_url_re'
p6302
sI6367
S"r'^https"
p6303
sI6368
S'//\\'
p6304
sI6369
S'\\w'
p6305
sI6370
S'simple_url_2_re'
p6306
sI6371
S"r'^www\\"
p6307
sI6372
S'|^'
p6308
sI6373
S'com|edu|gov|int|mil|net|org'
p6309
sI6374
S'|/'
p6310
sI6375
S'simple_email_re'
p6311
sI6376
S"r'^\\s+"
p6312
sI6377
S'\\s+\\'
p6313
sI6378
S'link_target_attribute_re'
p6314
sI6379
S'^\\s'
p6315
sI6380
S'html_gunk_re'
p6316
sI6381
S'\\/i'
p6317
sI6382
S'\\/b'
p6318
sI6383
S'em'
p6319
sI6384
S'\\/em'
p6320
sI6385
S'strong'
p6321
sI6386
S'\\/strong'
p6322
sI6387
S'\\/'
p6323
sI6388
S'smallcaps'
p6324
sI6389
S'uppercase'
p6325
sI6390
S'hard_coded_bullets_re'
p6326
sI6391
S'a-za-z'
p6327
sI6392
S'trailing_empty_content_re'
p6328
sI6393
S'nbsp'
p6329
sI6394
S'|\\s|'
p6330
sI6395
S'+\\z'
p6331
sI6396
S'amp'
p6332
sI6397
S'quot'
p6333
sI6398
S'39'
p6334
sI6399
S'_js_escapes'
p6335
sI6400
S"'\\\\u005c"
p6336
sI6401
S"'\\\\u0027"
p6337
sI6402
S"'\\\\u0022"
p6338
sI6403
S"'\\\\u003e"
p6339
sI6404
S"'\\\\u003c"
p6340
sI6405
S"'\\\\u0026"
p6341
sI6406
S"'\\\\u003d"
p6342
sI6407
S"'\\\\u002d"
p6343
sI6408
S"'\\\\u003b"
p6344
sI6409
S"'\\u2028"
p6345
sI6410
S"'\\\\u2028"
p6346
sI6411
S"'\\u2029"
p6347
sI6412
S"'\\\\u2029"
p6348
sI6413
S"'\\\\u"
p6349
sI6414
S'04x'
p6350
sI6415
S"'__html__"
p6351
sI6416
S'__html__'
p6352
sI6417
S'args_safe'
p6353
sI6418
S'kwargs_safe'
p6354
sI6419
S'args_generator'
p6355
sI6420
S'paras'
p6356
sI6421
S'mlstripper'
p6357
sI6422
S'strict'
p6358
sI6423
S'fed'
p6359
sI6424
S'handle_data'
p6360
sI6425
S'handle_entityref'
p6361
sI6426
S'handle_charref'
p6362
sI6427
S'get_data'
p6363
sI6428
S'_strip_once'
p6364
sI6429
S'unboundlocalerror'
p6365
sI6430
S'tags_re'
p6366
sI6431
S'starttag_re'
p6367
sI6432
S'endtag_re'
p6368
sI6433
S'strip_entities'
p6369
sI6434
S'smart_urlquote'
p6370
sI6435
S'*\\'
p6371
sI6436
S'~'
sI6437
S'trim_url'
p6372
sI6438
S'safe_input'
p6373
sI6439
S'lead'
p6374
sI6440
S'middle'
p6375
sI6441
S'trail'
p6376
sI6442
S'punctuation'
p6377
sI6443
S'opening'
p6378
sI6444
S'closing'
p6379
sI6445
S'nofollow_attr'
p6380
sI6446
S"'mailto"
p6381
sI6447
S'trimmed'
p6382
sI6448
S'\\xa0'
p6383
sI6449
S'_html_parser'
p6384
sI6450
S'current_version'
p6385
sI6451
S'use_workaround'
p6386
sI6452
S'convert_charrefs'
p6387
sI6453
S'tagfind'
p6388
sI6454
S'a-za-z0-9'
p6389
sI6455
S'\\s|/'
p6390
sI6456
S'cdata_tag'
p6391
sI6457
S'set_cdata_mode'
p6392
sI6458
S'interesting'
p6393
sI6459
S'interesting_cdata'
p6394
sI6460
S'/\\s*'
p6395
sI6461
S'clear_cdata_mode'
p6396
sI6462
S'interesting_normal'
p6397
sI6463
S'parse_starttag'
p6398
sI6464
S'__starttag_text'
p6399
sI6465
S'endpos'
p6400
sI6466
S'check_for_whole_start_tag'
p6401
sI6467
S"'unexpected"
p6402
sI6468
S'lasttag'
p6403
sI6469
S'attrfind'
p6404
sI6470
S'attrname'
p6405
sI6471
S'attrvalue'
p6406
sI6472
S'unescape'
p6407
sI6473
S'getpos'
p6408
sI6474
S'junk'
p6409
sI6475
S'handle_startendtag'
p6410
sI6476
S'handle_starttag'
p6411
sI6477
S'cdata_content_elements'
p6412
sI6478
S'parse_endtag'
p6413
sI6479
S'endendtag'
p6414
sI6480
S'endtagfind'
p6415
sI6481
S'bad'
p6416
sI6482
S'handle_endtag'
p6417
sI6483
S'binasciierror'
p6418
sI6484
S'quote_plus'
p6419
sI6485
S'unquote_plus'
p6420
sI6486
S'original_urlencode'
p6421
sI6487
S'etag_match'
p6422
sI6488
S'w/'
p6423
sI6489
S'feb'
p6424
sI6490
S'mar'
p6425
sI6491
S'apr'
p6426
sI6492
S'jun'
p6427
sI6493
S'jul'
p6428
sI6494
S'aug'
p6429
sI6495
S'oct'
p6430
sI6496
S'nov'
p6431
sI6497
S'__d'
p6432
sI6498
S'__d2'
p6433
sI6499
S'__m'
p6434
sI6500
S'mon'
p6435
sI6501
S'__y'
p6436
sI6502
S'__y2'
p6437
sI6503
S'__t'
p6438
sI6504
S'sec'
p6439
sI6505
S'rfc1123_date'
p6440
sI6506
S"r'^\\w"
p6441
sI6507
S'rfc850_date'
p6442
sI6508
S'asctime_date'
p6443
sI6509
S'urlquote_plus'
p6444
sI6510
S'urlunquote'
p6445
sI6511
S'quoted_url'
p6446
sI6512
S'urlunquote_plus'
p6447
sI6513
S'doseq'
p6448
sI6514
S"'items"
p6449
sI6515
S'epoch_seconds'
p6450
sI6516
S'rfcdate'
p6451
sI6517
S'usegmt'
p6452
sI6518
S'parse_http_date'
p6453
sI6519
S'70'
p6454
sI6520
S"'hour"
p6455
sI6521
S"'sec"
p6456
sI6522
S'parse_http_date_safe'
p6457
sI6523
S'base36_to_int'
p6458
sI6524
S'36'
p6459
sI6525
S'maxint'
p6460
sI6526
S'int_to_base36'
p6461
sI6527
S'0123456789abcdefghijklmnopqrstuvwxyz'
p6462
sI6528
S'factor'
p6463
sI6529
S'conversion'
p6464
sI6530
S'non-integer'
p6465
sI6531
S'urlsafe_base64_encode'
p6466
sI6532
S'urlsafe_base64_decode'
p6467
sI6533
S'parse_etags'
p6468
sI6534
S'etag_str'
p6469
sI6535
S'etags'
p6470
sI6536
S'findall'
p6471
sI6537
S"'unicode_escape"
p6472
sI6538
S'quote_etag'
p6473
sI6539
S'etag'
p6474
sI6540
S'same_origin'
p6475
sI6541
S'url1'
p6476
sI6542
S'url2'
p6477
sI6543
S'p1'
p6478
sI6544
S'p2'
p6479
sI6545
S'is_safe_url'
p6480
sI6546
S"'///"
p6481
sI6547
S'url_info'
p6482
sI6548
S'_resolve_name'
p6483
sI6549
S"'rindex"
p6484
sI6550
S"'package"
p6485
sI6551
S'relative'
p6486
sI6552
S'beyond'
p6487
sI6553
S'top-level'
p6488
sI6554
S'imports'
p6489
sI6555
S'require'
p6490
sI6556
S'ip_str'
p6491
sI6557
S'best_doublecolon_start'
p6492
sI6558
S'best_doublecolon_len'
p6493
sI6559
S'doublecolon_start'
p6494
sI6560
S'doublecolon_len'
p6495
sI6561
S'_explode_shorthand_ip_string'
p6496
sI6562
S'_sanitize_ipv4_mapping'
p6497
sI6563
S'ipv4_unpacked'
p6498
sI6564
S'_unpack_ipv4'
p6499
sI6565
S'hextets'
p6500
sI6566
S'best_doublecolon_end'
p6501
sI6567
S"'0000:0000:0000:0000:0000"
p6502
sI6568
S'ffff'
p6503
sI6569
S'ipv4_address'
p6504
sI6570
S'hextet'
p6505
sI6571
S'0x0'
p6506
sI6572
S'0xffff'
p6507
sI6573
S'_is_shorthand_ip'
p6508
sI6574
S'new_ip'
p6509
sI6575
S'fill_to'
p6510
sI6576
S"'0000"
p6511
sI6577
S'ret_ip'
p6512
sI6578
S'tok'
p6513
sI6579
S'literals'
p6514
sI6580
S'states'
p6515
sI6581
S'regexes'
p6516
sI6582
S'toks'
p6517
sI6583
S'rules'
p6518
sI6584
S'groupid'
p6519
sI6585
S'lex'
p6520
sI6586
S'lastgroup'
p6521
sI6587
S'toktext'
p6522
sI6588
S'jslexer'
p6523
sI6589
S'both_before'
p6524
sI6590
S'/\\*'
p6525
sI6591
S'|\\n'
p6526
sI6592
S'\\*/'
p6527
sI6593
S'linecomment'
p6528
sI6594
S'ws'
p6529
sI6595
S'case'
p6530
sI6596
S'catch'
p6531
sI6597
S'const'
p6532
sI6598
S'debugger'
p6533
sI6599
S'enum'
p6534
sI6600
S'export'
p6535
sI6601
S'instanceof'
p6536
sI6602
S'switch'
p6537
sI6603
S'throw'
p6538
sI6604
S'typeof'
p6539
sI6605
S'void'
p6540
sI6606
S'\\b'
p6541
sI6607
S"'reg"
p6542
sI6608
S"'div"
p6543
sI6609
S'a-za-z_'
p6544
sI6610
S'|\\\\u'
p6545
sI6611
S'0-9a-fa-z'
p6546
sI6612
S'0-9'
p6547
sI6613
S'0-9a-fa-f'
p6548
sI6614
S'hnum'
p6549
sI6615
S'xx'
p6550
sI6616
S'onum'
p6551
sI6617
S'0-7'
p6552
sI6618
S'dnum'
p6553
sI6619
S'0|'
p6554
sI6620
S'1-9'
p6555
sI6621
S'decimalintegerliteral'
p6556
sI6622
S'decimaldigits-opt'
p6557
sI6623
S'ee'
p6558
sI6624
S'-+'
p6559
sI6625
S'exponentpart-opt'
p6560
sI6626
S'decimaldigits'
p6561
sI6627
S'punct'
p6562
sI6628
S'||'
p6563
sI6629
S'reg'
p6564
sI6630
S'++'
p6565
sI6631
S'both_after'
p6566
sI6632
S'slash'
p6567
sI6633
S'^*\\\\/'
p6568
sI6634
S'anything'
p6569
sI6635
S'^\\'
p6570
sI6636
S'excluding'
p6571
sI6637
S'star'
p6572
sI6638
S'^\\\\/'
p6573
sI6639
S'trailing'
p6574
sI6640
S'escape_quotes'
p6575
sI6641
S"'regex"
p6576
sI6642
S"'string"
p6577
sI6643
S'guts'
p6578
sI6644
S'exceptionreporter'
p6579
sI6645
S'get_exception_reporter_filter'
p6580
sI6646
S'nullhandler'
p6581
sI6647
S'default_logging'
p6582
sI6648
S"'require_debug_false"
p6583
sI6649
S'requiredebugfalse'
p6584
sI6650
S"'require_debug_true"
p6585
sI6651
S'requiredebugtrue'
p6586
sI6652
S"'console"
p6587
sI6653
S"'logging"
p6588
sI6654
S'adminemailhandler'
p6589
sI6655
S'configure_logging'
p6590
sI6656
S'logging_config'
p6591
sI6657
S'logging_settings'
p6592
sI6658
S'capturewarnings'
p6593
sI6659
S'simplefilter'
p6594
sI6660
S'logging_config_func'
p6595
sI6661
S'include_html'
p6596
sI6662
S'emit'
p6597
sI6663
S'record'
p6598
sI6664
S'levelname'
p6599
sI6665
S"'external"
p6600
sI6666
S'getmessage'
p6601
sI6667
S'request_repr'
p6602
sI6668
S'get_request_repr'
p6603
sI6669
S'format_subject'
p6604
sI6670
S's\\n\\nrequest'
p6605
sI6671
S'reporter'
p6606
sI6672
S'is_email'
p6607
sI6673
S'get_traceback_html'
p6608
sI6674
S'formatted_subject'
p6609
sI6675
S"'\\\\n"
p6610
sI6676
S"'\\\\r"
p6611
sI6677
S'989'
p6612
sI6678
S'callbackfilter'
p6613
sI6679
S'namedtuple'
p6614
sI6680
S'_cacheinfo'
p6615
sI6681
S'cacheinfo'
p6616
sI6682
S'misses'
p6617
sI6683
S'currsize'
p6618
sI6684
S'_hashedseq'
p6619
sI6685
S'__slots__'
p6620
sI6686
S"'hashvalue"
p6621
sI6687
S'tup'
p6622
sI6688
S'hashvalue'
p6623
sI6689
S'_make_key'
p6624
sI6690
S'typed'
p6625
sI6691
S'kwd_mark'
p6626
sI6692
S'fasttypes'
p6627
sI6693
S'frozenset'
p6628
sI6694
S'sorted_items'
p6629
sI6695
S'decorating_function'
p6630
sI6696
S'user_function'
p6631
sI6697
S'stats'
p6632
sI6698
S'cache_get'
p6633
sI6699
S'_len'
p6634
sI6700
S'nonlocal_root'
p6635
sI6701
S'prev'
p6636
sI6702
S'link_prev'
p6637
sI6703
S'link_next'
p6638
sI6704
S'oldroot'
p6639
sI6705
S'oldkey'
p6640
sI6706
S'oldvalue'
p6641
sI6707
S'cache_info'
p6642
sI6708
S'__wrapped__'
p6643
sI6709
S'dotted_path'
p6644
sI6710
S'module_path'
p6645
sI6711
S'attribute/class'
p6646
sI6712
S'import_by_path'
p6647
sI6713
S'error_prefix'
p6648
sI6714
S"'import_by_path"
p6649
sI6715
S'serror'
p6650
sI6716
S'autodiscover_modules'
p6651
sI6717
S'register_to'
p6652
sI6718
S"'register_to"
p6653
sI6719
S'before_import_registry'
p6654
sI6720
S'_registry'
p6655
sI6721
S'module_to_search'
p6656
sI6722
S'find_spec'
p6657
sI6723
S'importlib_find'
p6658
sI6724
S'find_loader'
p6659
sI6725
S'module_name'
p6660
sI6726
S'package_name'
p6661
sI6727
S'package_path'
p6662
sI6728
S'full_module_name'
p6663
sI6729
S'imp'
p6664
sI6730
S'finder'
p6665
sI6731
S'meta_path'
p6666
sI6732
S'find_module'
p6667
sI6733
S'path_importer_cache'
p6668
sI6734
S'file_'
p6669
sI6735
S'hook'
p6670
sI6736
S'path_hooks'
p6671
sI6737
S'decimal_sep'
p6672
sI6738
S'grouping'
p6673
sI6739
S'use_grouping'
p6674
sI6740
S'str_number'
p6675
sI6741
S'int_part'
p6676
sI6742
S'dec_part'
p6677
sI6743
S'int_part_gd'
p6678
sI6744
S'cnt'
p6679
sI6745
S'escape_mappings'
p6680
sI6746
S'noncapture'
p6681
sI6747
S'non_capturing_groups'
p6682
sI6748
S'consume_next'
p6683
sI6749
S'pattern_iter'
p6684
sI6750
S'next_char'
p6685
sI6751
S'ch'
p6686
sI6752
S"'awaiting"
p6687
sI6753
S'walk_to_end'
p6688
sI6754
S'ilmsu'
p6689
sI6755
S'non-reversible'
p6690
sI6756
S'reg-exp'
p6691
sI6757
S'portion'
p6692
sI6758
S'terminal_char'
p6693
sI6759
S'get_quantifier'
p6694
sI6760
S'flatten_result'
p6695
sI6761
S'input_iter'
p6696
sI6762
S'representative'
p6697
sI6763
S'nesting'
p6698
sI6764
S'ch2'
p6699
sI6765
S'quant'
p6700
sI6766
S'inst'
p6701
sI6767
S'result_args'
p6702
sI6768
S'inner_result'
p6703
sI6769
S'inner_args'
p6704
sI6770
S'new_result'
p6705
sI6771
S'new_args'
p6706
sI6772
S'i_item'
p6707
sI6773
S'i_args'
p6708
sI6774
S'escapebytes'
p6709
sI6775
S'escapetext'
p6710
sI6776
S'escapestring'
p6711
sI6777
S'escapeunicode'
p6712
sI6778
S'safebytes'
p6713
sI6779
S'safetext'
p6714
sI6780
S'_proxy_method'
p6715
sI6781
S'safeunicode'
p6716
sI6782
S'__author__'
p6717
sI6783
S'benjamin'
p6718
sI6784
S'peterson'
p6719
sI6785
S'class_types'
p6720
sI6786
S'binary_type'
p6721
sI6787
S'basestring'
p6722
sI6788
S'java'
p6723
sI6789
S'63'
p6724
sI6790
S'_add_doc'
p6725
sI6791
S'_import_module'
p6726
sI6792
S'_lazydescr'
p6727
sI6793
S'tp'
p6728
sI6794
S'_resolve'
p6729
sI6795
S'imported'
p6730
sI6796
S'movedmodule'
p6731
sI6797
S'_module'
p6732
sI6798
S'_lazymodule'
p6733
sI6799
S'moduletype'
p6734
sI6800
S'_moved_attributes'
p6735
sI6801
S'movedattribute'
p6736
sI6802
S'old_mod'
p6737
sI6803
S'new_mod'
p6738
sI6804
S'old_attr'
p6739
sI6805
S'new_attr'
p6740
sI6806
S'_moveditems'
p6741
sI6807
S'cstringio'
p6742
sI6808
S'ifilter'
p6743
sI6809
S'filterfalse'
p6744
sI6810
S'ifilterfalse'
p6745
sI6811
S'__builtin__'
p6746
sI6812
S'raw_input'
p6747
sI6813
S'imap'
p6748
sI6814
S'reload_module'
p6749
sI6815
S'userstring'
p6750
sI6816
S'izip'
p6751
sI6817
S'zip_longest'
p6752
sI6818
S'izip_longest'
p6753
sI6819
S'configparser'
p6754
sI6820
S'copy_reg'
p6755
sI6821
S'dbm_gnu'
p6756
sI6822
S'gdbm'
p6757
sI6823
S'dbm'
p6758
sI6824
S'http_cookiejar'
p6759
sI6825
S'cookielib'
p6760
sI6826
S'cookiejar'
p6761
sI6827
S'html_entities'
p6762
sI6828
S'htmlentitydefs'
p6763
sI6829
S'entities'
p6764
sI6830
S'http_client'
p6765
sI6831
S'httplib'
p6766
sI6832
S'email_mime_multipart'
p6767
sI6833
S'email_mime_text'
p6768
sI6834
S'email_mime_base'
p6769
sI6835
S'basehttpserver'
p6770
sI6836
S'cgihttpserver'
p6771
sI6837
S'simplehttpserver'
p6772
sI6838
S'queue'
p6773
sI6839
S'reprlib'
p6774
sI6840
S'tkinter'
p6775
sI6841
S'tkinter_dialog'
p6776
sI6842
S'dialog'
p6777
sI6843
S'tkinter_filedialog'
p6778
sI6844
S'filedialog'
p6779
sI6845
S'tkinter_scrolledtext'
p6780
sI6846
S'scrolledtext'
p6781
sI6847
S'tkinter_simpledialog'
p6782
sI6848
S'simpledialog'
p6783
sI6849
S'tkinter_tix'
p6784
sI6850
S'tix'
p6785
sI6851
S'tkinter_ttk'
p6786
sI6852
S'ttk'
p6787
sI6853
S'tkinter_constants'
p6788
sI6854
S'tkconstants'
p6789
sI6855
S'constants'
p6790
sI6856
S'tkinter_dnd'
p6791
sI6857
S'tkdnd'
p6792
sI6858
S'dnd'
p6793
sI6859
S'tkinter_colorchooser'
p6794
sI6860
S'tkcolorchooser'
p6795
sI6861
S'colorchooser'
p6796
sI6862
S'tkinter_commondialog'
p6797
sI6863
S'tkcommondialog'
p6798
sI6864
S'commondialog'
p6799
sI6865
S'tkinter_tkfiledialog'
p6800
sI6866
S'tkfiledialog'
p6801
sI6867
S'tkinter_font'
p6802
sI6868
S'tkfont'
p6803
sI6869
S'font'
p6804
sI6870
S'tkinter_messagebox'
p6805
sI6871
S'tkmessagebox'
p6806
sI6872
S'messagebox'
p6807
sI6873
S'tkinter_tksimpledialog'
p6808
sI6874
S'tksimpledialog'
p6809
sI6875
S'urllib_parse'
p6810
sI6876
S'urllib_error'
p6811
sI6877
S'urllib_robotparser'
p6812
sI6878
S'robotparser'
p6813
sI6879
S'xmlrpc_client'
p6814
sI6880
S'xmlrpclib'
p6815
sI6881
S'xmlrpc'
p6816
sI6882
S'xmlrpc_server'
p6817
sI6883
S'winreg'
p6818
sI6884
S'_winreg'
p6819
sI6885
S'module_six_moves_urllib_parse'
p6820
sI6886
S'_urllib_parse_moved_attributes'
p6821
sI6887
S'parseresult'
p6822
sI6888
S'splitresult'
p6823
sI6889
S'parse_qs'
p6824
sI6890
S'urldefrag'
p6825
sI6891
S'urlunparse'
p6826
sI6892
S'splitquery'
p6827
sI6893
S'module_six_moves_urllib_error'
p6828
sI6894
S'_urllib_error_moved_attributes'
p6829
sI6895
S'urlerror'
p6830
sI6896
S'urllib2'
p6831
sI6897
S'httperror'
p6832
sI6898
S'contenttooshorterror'
p6833
sI6899
S'module_six_moves_urllib_request'
p6834
sI6900
S'_urllib_request_moved_attributes'
p6835
sI6901
S'urlopen'
p6836
sI6902
S'install_opener'
p6837
sI6903
S'build_opener'
p6838
sI6904
S'pathname2url'
p6839
sI6905
S'url2pathname'
p6840
sI6906
S'getproxies'
p6841
sI6907
S'openerdirector'
p6842
sI6908
S'httpdefaulterrorhandler'
p6843
sI6909
S'httpredirecthandler'
p6844
sI6910
S'httpcookieprocessor'
p6845
sI6911
S'proxyhandler'
p6846
sI6912
S'httppasswordmgr'
p6847
sI6913
S'httppasswordmgrwithdefaultrealm'
p6848
sI6914
S'abstractbasicauthhandler'
p6849
sI6915
S'httpbasicauthhandler'
p6850
sI6916
S'proxybasicauthhandler'
p6851
sI6917
S'abstractdigestauthhandler'
p6852
sI6918
S'httpdigestauthhandler'
p6853
sI6919
S'proxydigestauthhandler'
p6854
sI6920
S'httphandler'
p6855
sI6921
S'httpshandler'
p6856
sI6922
S'filehandler'
p6857
sI6923
S'ftphandler'
p6858
sI6924
S'cacheftphandler'
p6859
sI6925
S'unknownhandler'
p6860
sI6926
S'httperrorprocessor'
p6861
sI6927
S'urlcleanup'
p6862
sI6928
S'urlopener'
p6863
sI6929
S'fancyurlopener'
p6864
sI6930
S'proxy_bypass'
p6865
sI6931
S'urllib_request'
p6866
sI6932
S'module_six_moves_urllib_response'
p6867
sI6933
S'_urllib_response_moved_attributes'
p6868
sI6934
S'addbase'
p6869
sI6935
S'addclosehook'
p6870
sI6936
S'addinfo'
p6871
sI6937
S'addinfourl'
p6872
sI6938
S'urllib_response'
p6873
sI6939
S'module_six_moves_urllib_robotparser'
p6874
sI6940
S'_urllib_robotparser_moved_attributes'
p6875
sI6941
S'robotfileparser'
p6876
sI6942
S'module_six_moves_urllib'
p6877
sI6943
S"'parse"
p6878
sI6944
S"'response"
p6879
sI6945
S"'robotparser"
p6880
sI6946
S'add_move'
p6881
sI6947
S'remove_move'
p6882
sI6948
S'such'
p6883
sI6949
S'_meth_func'
p6884
sI6950
S'__func__'
p6885
sI6951
S'_meth_self'
p6886
sI6952
S'_func_closure'
p6887
sI6953
S'__closure__'
p6888
sI6954
S'_func_code'
p6889
sI6955
S'__code__'
p6890
sI6956
S'_func_defaults'
p6891
sI6957
S'__defaults__'
p6892
sI6958
S'_func_globals'
p6893
sI6959
S'__globals__'
p6894
sI6960
S'im_func'
p6895
sI6961
S'im_self'
p6896
sI6962
S'func_closure'
p6897
sI6963
S'func_code'
p6898
sI6964
S'func_defaults'
p6899
sI6965
S'func_globals'
p6900
sI6966
S'advance_iterator'
p6901
sI6967
S'get_unbound_function'
p6902
sI6968
S'unbound'
p6903
sI6969
S'create_bound_method'
p6904
sI6970
S'methodtype'
p6905
sI6971
S'possibly'
p6906
sI6972
S'get_method_function'
p6907
sI6973
S'get_method_self'
p6908
sI6974
S'get_function_closure'
p6909
sI6975
S'get_function_code'
p6910
sI6976
S'get_function_defaults'
p6911
sI6977
S'get_function_globals'
p6912
sI6978
S'latin-1'
p6913
sI6979
S'unichr'
p6914
sI6980
S'chr'
p6915
sI6981
S'int2byte'
p6916
sI6982
S'methodcaller'
p6917
sI6983
S'byte2int'
p6918
sI6984
S'itemgetter'
p6919
sI6985
S'indexbytes'
p6920
sI6986
S'iterbytes'
p6921
sI6987
S"r'\\\\\\\\"
p6922
sI6988
S'unicode_escape'
p6923
sI6989
S'bs'
p6924
sI6990
S'exec_'
p6925
sI6991
S'with_traceback'
p6926
sI6992
S'_code_'
p6927
sI6993
S'_globs_'
p6928
sI6994
S'_locs_'
p6929
sI6995
S'frame'
p6930
sI6996
S'_getframe'
p6931
sI6997
S'f_globals'
p6932
sI6998
S'f_locals'
p6933
sI6999
S'print_'
p6934
sI7000
S'want_unicode'
p6935
sI7001
S'newline'
p6936
sI7002
S'space'
p6937
sI7003
S'metaclass'
p6938
sI7004
S'this_bases'
p6939
sI7005
S"'temporary_class"
p6940
sI7006
S'add_metaclass'
p6941
sI7007
S'orig_vars'
p6942
sI7008
S"'__dict__"
p6943
sI7009
S"'__weakref__"
p6944
sI7010
S'slots'
p6945
sI7011
S"'__slots__"
p6946
sI7012
S'slots_var'
p6947
sI7013
S'__bases__'
p6948
sI7014
S'_assertcountequal'
p6949
sI7015
S'assertcountequal'
p6950
sI7016
S'_assertraisesregex'
p6951
sI7017
S'assertraisesregex'
p6952
sI7018
S'_assertregex'
p6953
sI7019
S'assertregex'
p6954
sI7020
S'buffer_types'
p6955
sI7021
S'bytearray'
p6956
sI7022
S'assertitemsequal'
p6957
sI7023
S'assertraisesregexp'
p6958
sI7024
S'assertregexpmatches'
p6959
sI7025
S'dummy_thread'
p6960
sI7026
S'contextlib'
p6961
sI7027
S'dummy_threading'
p6962
sI7028
S'mutex'
p6963
sI7029
S'can_read'
p6964
sI7030
S'semaphore'
p6965
sI7031
S'can_write'
p6966
sI7032
S'active_readers'
p6967
sI7033
S'active_writers'
p6968
sI7034
S'waiting_readers'
p6969
sI7035
S'waiting_writers'
p6970
sI7036
S'reader_enters'
p6971
sI7037
S'acquire'
p6972
sI7038
S'reader_leaves'
p6973
sI7039
S'contextmanager'
p6974
sI7040
S'writer_enters'
p6975
sI7041
S'writer_leaves'
p6976
sI7042
S'color_names'
p6977
sI7043
S"'black"
p6978
sI7044
S"'red"
p6979
sI7045
S"'green"
p6980
sI7046
S"'yellow"
p6981
sI7047
S"'blue"
p6982
sI7048
S"'magenta"
p6983
sI7049
S"'cyan"
p6984
sI7050
S"'white"
p6985
sI7051
S'foreground'
p6986
sI7052
S'background'
p6987
sI7053
S'opt_dict'
p6988
sI7054
S"'bold"
p6989
sI7055
S"'underscore"
p6990
sI7056
S"'blink"
p6991
sI7057
S"'5"
p6992
sI7058
S"'reverse"
p6993
sI7059
S"'7"
p6994
sI7060
S"'conceal"
p6995
sI7061
S"'8"
p6996
sI7062
S'code_list'
p6997
sI7063
S"'\\x1b"
p6998
sI7064
S'sm'
p6999
sI7065
S"'fg"
p7000
sI7066
S"'bg"
p7001
sI7067
S"'noreset"
p7002
sI7068
S's\\x1b'
p7003
sI7069
S"'nocolor"
p7004
sI7070
S'dark_palette'
p7005
sI7071
S"'dark"
p7006
sI7072
S'light_palette'
p7007
sI7073
S"'light"
p7008
sI7074
S"'notice"
p7009
sI7075
S"'sql_field"
p7010
sI7076
S"'sql_coltype"
p7011
sI7077
S"'sql_keyword"
p7012
sI7078
S"'sql_table"
p7013
sI7079
S"'http_info"
p7014
sI7080
S"'http_success"
p7015
sI7081
S"'http_redirect"
p7016
sI7082
S"'http_not_modified"
p7017
sI7083
S"'http_bad_request"
p7018
sI7084
S"'http_not_found"
p7019
sI7085
S"'http_server_error"
p7020
sI7086
S"'migrate_heading"
p7021
sI7087
S"'migrate_label"
p7022
sI7088
S"'migrate_success"
p7023
sI7089
S"'migrate_failure"
p7024
sI7090
S"'opts"
p7025
sI7091
S'default_palette'
p7026
sI7092
S'config_string'
p7027
sI7093
S'palette'
p7028
sI7094
S'part'
p7029
sI7095
S'instructions'
p7030
sI7096
S'styles'
p7031
sI7097
S'colors'
p7032
sI7098
S'fg'
p7033
sI7099
S'pgettext'
p7034
sI7100
S're_words'
p7035
sI7101
S'-\\w'
p7036
sI7102
S'*|'
p7037
sI7103
S're_chars'
p7038
sI7104
S're_tag'
p7039
sI7105
S'\\s*/'
p7040
sI7106
S're_newlines'
p7041
sI7107
S"r'\\r\\n|\\r"
p7042
sI7108
S're_camel_case'
p7043
sI7109
S'_generator'
p7044
sI7110
S'splitlines'
p7045
sI7111
S'add_truncation_text'
p7046
sI7112
S'truncating'
p7047
sI7113
S'truncated_text'
p7048
sI7114
S"'truncated_text"
p7049
sI7115
S"'nfc"
p7050
sI7116
S'truncate_len'
p7051
sI7117
S'combining'
p7052
sI7118
S'_truncate_html'
p7053
sI7119
S'_text_chars'
p7054
sI7120
S's_len'
p7055
sI7121
S'_text_words'
p7056
sI7122
S'html4_singlets'
p7057
sI7123
S"'br"
p7058
sI7124
S"'col"
p7059
sI7125
S"'base"
p7060
sI7126
S"'img"
p7061
sI7127
S"'param"
p7062
sI7128
S"'area"
p7063
sI7129
S"'hr"
p7064
sI7130
S'end_text_pos'
p7065
sI7131
S'current_len'
p7066
sI7132
S'open_tags'
p7067
sI7133
S'closing_tag'
p7068
sI7134
S'self_closing'
p7069
sI7135
S'truncate_text'
p7070
sI7136
S'^-\\w'
p7071
sI7137
S'last_word'
p7072
sI7138
S'phone'
p7073
sI7139
S'char2number'
p7074
sI7140
S"'b"
p7075
sI7141
S"'c"
p7076
sI7142
S"'g"
p7077
sI7143
S"'h"
p7078
sI7144
S"'i"
p7079
sI7145
S"'j"
p7080
sI7146
S"'k"
p7081
sI7147
S"'l"
p7082
sI7148
S"'6"
p7083
sI7149
S"'n"
p7084
sI7150
S"'q"
p7085
sI7151
S"'u"
p7086
sI7152
S"'v"
p7087
sI7153
S"'9"
p7088
sI7154
S"'x"
p7089
sI7155
S"'y"
p7090
sI7156
S'compress_string'
p7091
sI7157
S'zbuf'
p7092
sI7158
S'zfile'
p7093
sI7159
S'compresslevel'
p7094
sI7160
S'fileobj'
p7095
sI7161
S'streamingbuffer'
p7096
sI7162
S'vals'
p7097
sI7163
S'compress_sequence'
p7098
sI7164
S'ustring_re'
p7099
sI7165
S'\\u0080-\\uffff'
p7100
sI7166
S'javascript_quote'
p7101
sI7167
S'quote_double_quotes'
p7102
sI7168
S'\\\\u'
p7103
sI7169
S"'\\\\t"
p7104
sI7170
S'\\\\/'
p7105
sI7171
S'smart_split_re'
p7106
sI7172
S'_replace_entity'
p7107
sI7173
S"'xx"
p7108
sI7174
S'name2codepoint'
p7109
sI7175
S'_entity_re'
p7110
sI7176
S'+|\\w'
p7111
sI7177
S'^\\w\\s-'
p7112
sI7178
S'-\\s'
p7113
sI7179
S'camel_case_to_spaces'
p7114
sI7180
S'week'
p7115
sI7181
S'weeks'
p7116
sI7182
S'hours'
p7117
sI7183
S'minutes'
p7118
sI7184
S'since'
p7119
sI7185
S'seconds2'
p7120
sI7186
S'name2'
p7121
sI7187
S'count2'
p7122
sI7188
S'_time'
p7123
sI7189
S'pytz'
p7124
sI7190
S"'utc"
p7125
sI7191
S"'get_fixed_timezone"
p7126
sI7192
S"'get_default_timezone"
p7127
sI7193
S"'get_default_timezone_name"
p7128
sI7194
S"'get_current_timezone"
p7129
sI7195
S"'get_current_timezone_name"
p7130
sI7196
S"'activate"
p7131
sI7197
S"'deactivate"
p7132
sI7198
S"'override"
p7133
sI7199
S"'localtime"
p7134
sI7200
S"'is_aware"
p7135
sI7201
S"'is_naive"
p7136
sI7202
S"'make_aware"
p7137
sI7203
S"'make_naive"
p7138
sI7204
S'fixedoffset'
p7139
sI7205
S'__offset'
p7140
sI7206
S'__name'
p7141
sI7207
S'referencelocaltimezone'
p7142
sI7208
S'stdoffset'
p7143
sI7209
S'daylight'
p7144
sI7210
S'dstoffset'
p7145
sI7211
S'altzone'
p7146
sI7212
S'dstdiff'
p7147
sI7213
S'_isdst'
p7148
sI7214
S'tt'
p7149
sI7215
S'stamp'
p7150
sI7216
S'localtime'
p7151
sI7217
S'tm_isdst'
p7152
sI7218
S'localtimezone'
p7153
sI7219
S'is_dst'
p7154
sI7220
S'hhmm'
p7155
sI7221
S'_localtime'
p7156
sI7222
S'time_zone'
p7157
sI7223
S'get_default_timezone_name'
p7158
sI7224
S'_get_timezone_name'
p7159
sI7225
S'deactivate'
p7160
sI7226
S'old_timezone'
p7161
sI7227
S'should_convert'
p7162
sI7228
S"'convert_to_local_time"
p7163
sI7229
S'astimezone'
p7164
sI7230
S"'normalize"
p7165
sI7231
S'expects'
p7166
sI7232
S'naive'
p7167
sI7233
S"'deactivate_all"
p7168
sI7234
S"'get_language"
p7169
sI7235
S"'get_language_from_request"
p7170
sI7236
S"'get_language_info"
p7171
sI7237
S"'get_language_bidi"
p7172
sI7238
S"'check_for_language"
p7173
sI7239
S"'to_locale"
p7174
sI7240
S"'templatize"
p7175
sI7241
S"'string_concat"
p7176
sI7242
S"'gettext"
p7177
sI7243
S"'gettext_lazy"
p7178
sI7244
S"'gettext_noop"
p7179
sI7245
S"'ugettext"
p7180
sI7246
S"'ugettext_lazy"
p7181
sI7247
S"'ugettext_noop"
p7182
sI7248
S"'ngettext"
p7183
sI7249
S"'ngettext_lazy"
p7184
sI7250
S"'ungettext"
p7185
sI7251
S"'ungettext_lazy"
p7186
sI7252
S"'pgettext"
p7187
sI7253
S"'pgettext_lazy"
p7188
sI7254
S"'npgettext"
p7189
sI7255
S"'npgettext_lazy"
p7190
sI7256
S"'language_session_key"
p7191
sI7257
S'language_session_key'
p7192
sI7258
S"'_language"
p7193
sI7259
S'translatorcommentwarning'
p7194
sI7260
S'syntaxwarning'
p7195
sI7261
S'trans'
p7196
sI7262
S'real_name'
p7197
sI7263
S'trans_null'
p7198
sI7264
S'_trans'
p7199
sI7265
S'ngettext'
p7200
sI7266
S'singular'
p7201
sI7267
S'npgettext'
p7202
sI7268
S'lazy_number'
p7203
sI7269
S'numberawarestring'
p7204
sI7270
S'number_value'
p7205
sI7271
S'lacks'
p7206
sI7272
S's\\'
p7207
sI7273
S"'determine"
p7208
sI7274
S'whether'
p7209
sI7275
S'translated'
p7210
sI7276
S'ngettext_lazy'
p7211
sI7277
S'npgettext_lazy'
p7212
sI7278
S'old_language'
p7213
sI7279
S'deactivate_all'
p7214
sI7280
S'lang_code'
p7215
sI7281
S'get_language_from_request'
p7216
sI7282
S'check_path'
p7217
sI7283
S'get_language_from_path'
p7218
sI7284
S'_string_concat'
p7219
sI7285
S'string_concat'
p7220
sI7286
S'get_language_info'
p7221
sI7287
S'lang_info'
p7222
sI7288
S'generic_lang_code'
p7223
sI7289
S'trim_whitespace_re'
p7224
sI7290
S"'\\s*\\n\\s*"
p7225
sI7291
S'trim_whitespace'
p7226
sI7292
S'languages_bidi'
p7227
sI7293
S'gettext_module'
p7228
sI7294
S'setting_changed'
p7229
sI7295
S'_supported'
p7230
sI7296
S'context_separator'
p7231
sI7297
S'\\x04'
p7232
sI7298
S'accept_language_re'
p7233
sI7299
S'*|\\*'
p7234
sI7300
S'en'
p7235
sI7301
S'en-au'
p7236
sI7302
S'x-y-z'
p7237
sI7303
S'es-419'
p7238
sI7304
S'\\s*q'
p7239
sI7305
S'|1'
p7240
sI7306
S'q'
sI7307
S'00'
p7241
sI7308
S'\\s*|'
p7242
sI7309
S'per'
p7243
sI7310
S'language_code_re'
p7244
sI7311
S'language_code_prefix_re'
p7245
sI7312
S'\\w-'
p7246
sI7313
S'/|'
p7247
sI7314
S'_browsers_deprecated_locales'
p7248
sI7315
S"'zh-cn"
p7249
sI7316
S"'zh-hans"
p7250
sI7317
S"'zh-tw"
p7251
sI7318
S"'zh-hant"
p7252
sI7319
S'_django_deprecated_locales'
p7253
sI7320
S'reset_cache'
p7254
sI7321
S"'setting"
p7255
sI7322
S'get_supported_language_variant'
p7256
sI7323
S'to_lower'
p7257
sI7324
S'to_language'
p7258
sI7325
S'djangotranslation'
p7259
sI7326
S'gnutranslations'
p7260
sI7327
S'__language'
p7261
sI7328
S'__to_language'
p7262
sI7329
S'__locale'
p7263
sI7330
S'_init_translation_catalog'
p7264
sI7331
S'_add_installed_apps_translations'
p7265
sI7332
S'_add_local_translations'
p7266
sI7333
S'_add_fallback'
p7267
sI7334
S'_new_gnu_trans'
p7268
sI7335
S'localedir'
p7269
sI7336
S'use_null_fallback'
p7270
sI7337
S'codeset'
p7271
sI7338
S'fallback'
p7272
sI7339
S"'_catalog"
p7273
sI7340
S'_catalog'
p7274
sI7341
S'_info'
p7275
sI7342
S'settingsfile'
p7276
sI7343
S'infrastructure'
p7277
sI7344
S'initialized'
p7278
sI7345
S'ready'
p7279
sI7346
S'non-lazy'
p7280
sI7347
S'calls'
p7281
sI7348
S'en-us'
p7282
sI7349
S'default_translation'
p7283
sI7350
S'add_fallback'
p7284
sI7351
S'nulltranslations'
p7285
sI7352
S'base_lang'
p7286
sI7353
S'catalog'
p7287
sI7354
S'do_translate'
p7288
sI7355
S'translation_function'
p7289
sI7356
S'eol_message'
p7290
sI7357
S"'\\r\\n"
p7291
sI7358
S'msg_with_ctxt'
p7292
sI7359
S'do_ntranslate'
p7293
sI7360
S'msgs_with_ctxt'
p7294
sI7361
S'all_locale_paths'
p7295
sI7362
S'globalpath'
p7296
sI7363
S'supported_code'
p7297
sI7364
S'regex_match'
p7298
sI7365
S"'session"
p7299
sI7366
S'session'
p7300
sI7367
S'language_cookie_name'
p7301
sI7368
S"'http_accept_language"
p7302
sI7369
S'accept_lang'
p7303
sI7370
S'parse_accept_lang_header'
p7304
sI7371
S'dot_re'
p7305
sI7372
S"r'\\s"
p7306
sI7373
S'blankout'
p7307
sI7374
S'context_re'
p7308
sI7375
S'^\\s+'
p7309
sI7376
S'*context\\s+'
p7310
sI7377
S'inline_re'
p7311
sI7378
S'^\\s*trans\\s+'
p7312
sI7379
S'block_re'
p7313
sI7380
S'^\\s*blocktrans'
p7314
sI7381
S'\\s+|'
p7315
sI7382
S'endblock_re'
p7316
sI7383
S'^\\s*endblocktrans'
p7317
sI7384
S'plural_re'
p7318
sI7385
S'^\\s*plural'
p7319
sI7386
S'constant_re'
p7320
sI7387
S'_\\'
p7321
sI7388
S'one_percent_re'
p7322
sI7389
S'intrans'
p7323
sI7390
S'inplural'
p7324
sI7391
S'incomment'
p7325
sI7392
S'lineno_comment_map'
p7326
sI7393
S'comment_lineno_cache'
p7327
sI7394
S'join_tokens'
p7328
sI7395
S'trim'
p7329
sI7396
S'translators_comment_start'
p7330
sI7397
S'endbmatch'
p7331
sI7398
S'pluralmatch'
p7332
sI7399
S'filemsg'
p7333
sI7400
S'sline'
p7334
sI7401
S'cur_lineno'
p7335
sI7402
S'warn_msg'
p7336
sI7403
S'translator-targeted'
p7337
sI7404
S'imatch'
p7338
sI7405
S'bmatch'
p7339
sI7406
S'cmatches'
p7340
sI7407
S'context_match'
p7341
sI7408
S'fmatch'
p7342
sI7409
S"'trimmed"
p7343
sI7410
S'cmatch'
p7344
sI7411
S'lang_string'
p7345
sI7412
S'priority'
p7346
sI7413
S'children'
p7347
sI7414
S'connector'
p7348
sI7415
S'negated'
p7349
sI7416
S'_new_instance'
p7350
sI7417
S'memodict'
p7351
sI7418
S'_prepare_data'
p7352
sI7419
S'conn_type'
p7353
sI7420
S'__getinitargs__'
p7354
sI7421
S'__dt'
p7355
sI7422
S'_tzname'
p7356
sI7423
S'2037'
p7357
sI7424
S'unittest'
p7358
sI7425
S'unittest2'
p7359
sI7426
S'get_complete_version'
p7360
sI7427
S'major'
p7361
sI7428
S'get_major_version'
p7362
sI7429
S"'alpha"
p7363
sI7430
S'git_changeset'
p7364
sI7431
S'get_git_changeset'
p7365
sI7432
S'dev'
p7366
sI7433
S"'beta"
p7367
sI7434
S"'rc"
p7368
sI7435
S'repo_dir'
p7369
sI7436
S'git_log'
p7370
sI7437
S"'git"
p7371
sI7438
S'pretty'
p7372
sI7439
S'ct'
p7373
sI7440
S'quiet'
p7374
sI7441
S'-1'
p7375
sI7442
S'head'
p7376
sI7443
S'cwd'
p7377
sI7444
S'changeset'
p7378
sI7445
S'saxutils'
p7379
sI7446
S'xmlgenerator'
p7380
s.