(dp1
S''
(lp2
I0
asS"'http_redirect"
p3
I7081
sS'xgettext'
p4
I2342
sS'factory'
p5
I6113
sS'four'
p6
I5364
sS'prefix'
p7
I981
sS'getatime'
p8
I965
sS"'grouper"
p9
I5304
sS'typeerror'
p10
I145
sS"'compiles"
p11
I1812
sS'method_decorator'
p12
I6008
sS'utcfromtimestamp'
p13
I297
sS'_tzname'
p14
I7422
sS'emit_post_migrate'
p15
I2094
sS'digit'
p16
I3803
sS'resolvermatch'
p17
I3438
sS"'endverbatim"
p18
I5400
sS"'"
I34
sS'row_ender'
p19
I3939
sS'calculate_app_template_dirs'
p20
I5472
sS"'traceback"
p21
I1995
sS'highest_protocol'
p22
I302
sS'reverse'
p23
I2034
sS'string_types'
p24
I417
sS'_render'
p25
I4917
sS'neg_inf'
p26
I5155
sS'month_field'
p27
I3678
sS'linebreaks_filter'
p28
I5188
sS'rendered_content'
p29
I5506
sS'option_strings'
p30
I1602
sS'pubid'
p31
I3270
sS'second'
p32
I5075
sS'273'
p33
I5903
sS'item_date'
p34
I6211
sS'find_commands'
p35
I1521
sS"'java"
p36
I3044
sS'errors'
p37
I211
sS'tarfile'
p38
I5575
sS'org/2005/atom'
p39
I6224
sS'smart_bytes'
p40
I6141
sS'negated'
p41
I7415
sS'groupid'
p42
I6584
sS'widget'
p43
I3657
sS'reporter'
p44
I6671
sS'formats'
p45
I3663
sS'reported'
p46
I4698
sS'serror'
p47
I6715
sS'bz2file'
p48
I2243
sS'no_style'
p49
I1633
sS'regexurlresolver'
p50
I1113
sS'initial_value'
p51
I3778
sS'k'
I194
sS"'permanent"
p52
I4717
sS"'temporaryuploadedfile"
p53
I990
sS'eol_message'
p54
I7356
sS'is_serious'
p55
I608
sS"'startapp"
p56
I1621
sS'replace'
p57
I292
sS'brought'
p58
I2566
sS'substr'
p59
I5987
sS'copy_reg'
p60
I6820
sS'txt'
p61
I2377
sS'dnd'
p62
I6858
sS'tokenize'
p63
I4924
sS'until'
p64
I2726
sS'widthrationode'
p65
I5329
sS'isatty'
p66
I1051
sS'get_queryset'
p67
I4176
sS'encode_base64'
p68
I1496
sS'91'
p69
I6231
sS'90'
p70
I5897
sS'abspathu'
p71
I904
sS'unpack'
p72
I5266
sS'm2m_value'
p73
I3185
sS'full_statement'
p74
I1918
sS'writelines'
p75
I1058
sS'basevalidator'
p76
I3633
sS"'exclude"
p77
I1831
sS'find_indentation'
p78
I5534
sS'fnmatch'
p79
I2294
sS"'do_not_call_in_templates"
p80
I5034
sS'socketserver'
p81
I3296
sS'get_quantifier'
p82
I6759
sS'xreadlines'
p83
I1059
sS'emailbackend'
p84
I1305
sS'want'
p85
I2080
sS'absolute'
p86
I929
sS'make_writeable'
p87
I2999
sS'wsgirequesthandler'
p88
I3312
sS'db_module'
p89
I2106
sS'typed'
p90
I6690
sS"'save_m2m"
p91
I4232
sS"'allow_empty_file"
p92
I3844
sS'field_desc'
p93
I2170
sS'types'
p94
I613
sS"'widget"
p95
I3792
sS'debuglexer'
p96
I4920
sS'classmethod'
p97
I1010
sS'leave_locale_alone'
p98
I1651
sS'decorator_from_middleware_with_args'
p99
I6016
sS'alias'
p100
I99
sS'type_'
p101
I6300
sS'/textarea'
p102
I4379
sS'tag_exists'
p103
I472
sS'__'
p104
I4574
sS'_\\'
p105
I7387
sS'vars'
p106
I1701
sS'var|'
p107
I5355
sS"'bad"
p108
I1233
sS"'\\x1b"
p109
I7063
sS'real_date'
p110
I5980
sS'validators'
p111
I3717
sS"'required"
p112
I3760
sS'has_changed'
p113
I3983
sS'fix'
p114
I2502
sS'old_language'
p115
I7278
sS'model_to_dict'
p116
I4116
sS'hidden'
p117
I3948
sS"'ordered_forms"
p118
I4065
sS'__setstate__'
p119
I4800
sS'compile_filter_error'
p120
I4950
sS"'opencomment"
p121
I5323
sS"'natural_key"
p122
I2024
sS'dumps'
p123
I301
sS"'signature"
p124
I3428
sS'timeout'
p125
I139
sS'debug'
p126
I464
sS'compile_string'
p127
I4879
sS'field_stream'
p128
I4519
sS'urlsafe_b64decode'
p129
I3404
sS'urlfield'
p130
I3851
sS'from_iterable'
p131
I4645
sS'rv'
p132
I6043
sS'basemodelform'
p133
I4143
sS'dst'
p134
I862
sS'basedir'
p135
I1848
sS're'
p136
I2103
sS"'processing"
p137
I1861
sS"'foreignkey"
p138
I2156
sS'getelementsbytagname'
p139
I3250
sS"'fixture"
p140
I2048
sS'md5'
p141
I382
sS'cache_model_class'
p142
I262
sS'validate_min'
p143
I4077
sS'directory_created'
p144
I2517
sS'initlock'
p145
I1228
sS"'datetime"
p146
I4281
sS'request_finished'
p147
I71
sS'resetting'
p148
I2252
sS'_locks'
p149
I390
sS'pythonserializer'
p150
I3155
sS"'script_url"
p151
I1245
sS'name_str'
p152
I2498
sS'_namedcyclenodes'
p153
I5348
sS'b64encoded'
p154
I303
sS'basestring'
p155
I6787
sS'gen_filenames'
p156
I5619
sS'add_prefix'
p157
I3478
sS'needed'
p158
I1881
sS"'absolute_max"
p159
I4086
sS'listed'
p160
I1567
sS'allow_empty_first_page'
p161
I3076
sS'last_row'
p162
I3956
sS"'find"
p163
I1886
sS"'nodelist_loop"
p164
I5253
sS'app_list_value'
p165
I2007
sS'fixture_files_in_dir'
p166
I2283
sS'get_output_charset'
p167
I1313
sS'as_json'
p168
I4265
sS'date_format'
p169
I4429
sS'wintypes'
p170
I819
sS'tree'
p171
I1845
sS'project'
p172
I510
sS'register_serializer'
p173
I3115
sS'filter_sep'
p174
I4994
sS'runner'
p175
I518
sS"'templates/"
p176
I5489
sS'default_settings'
p177
I1941
sS"'ignore_patterns"
p178
I2391
sS'inplural'
p179
I7390
sS'attribute/class'
p180
I6711
sS'altzone'
p181
I7211
sS"'error_class"
p182
I4049
sS'get_complete_version'
p183
I7426
sS"'locale"
p184
I1823
sS"'`mergedict`"
p185
I5826
sS'fancyurlopener'
p186
I6929
sS'object'
p187
I94
sS'fs_encoding'
p188
I5473
sS'userstring'
p189
I6815
sS'microsecond'
p190
I293
sS'letter'
p191
I3020
sS'varargs'
p192
I5022
sS'formset'
p193
I4080
sS'jslexer'
p194
I6588
sS"'chmod"
p195
I870
sS'dummy'
p196
I1783
sS'quote_name'
p197
I266
sS'numberformat'
p198
I6255
sS'createsuperuser'
p199
I2849
sS'migrate_label'
p200
I2520
sS'filemsg'
p201
I7399
sS'__str__'
p202
I600
sS'sentinal'
p203
I4930
sS'created_time'
p204
I934
sS'-+\\'
p205
I5002
sS"'nt"
p206
I807
sS'^https'
p207
I4599
sS'baseformset'
p208
I4033
sS"'nd"
p209
I5911
sS"'+00:00"
p210
I3172
sS'tzinfo'
p211
I316
sS"'no"
p212
I2082
sS'gzipfile'
p213
I2238
sS'16384'
p214
I4571
sS'func_name'
p215
I3450
sS'modified_time'
p216
I935
sS'ceil'
p217
I3068
sS'optgroup'
p218
I4396
sS"'serialized"
p219
I4839
sS"'reverse"
p220
I7058
sS"'badserializermodule"
p221
I3119
sS"'serializer"
p222
I3121
sS"'content-type"
p223
I1016
sS'alters_data'
p224
I4167
sS'stdoffset'
p225
I7208
sS'limit_value'
p226
I3636
sS"'override"
p227
I7198
sS'log_date_time_string'
p228
I3316
sS'result'
p229
I310
sS'per_page'
p230
I3074
sS"'valid"
p231
I6045
sS"'unexpected"
p232
I6467
sS'assignment_tag'
p233
I5072
sS'iri'
p234
I6146
sS"'mark"
p235
I2569
sS"'end"
p236
I4938
sS'format_type'
p237
I6267
sS'never'
p238
I4543
sS'option_value'
p239
I4392
sS'extend'
p240
I491
sS'parse_known_args'
p241
I1616
sS'tried_modules'
p242
I5097
sS'next_page_number'
p243
I3102
sS"'separate"
p244
I2965
sS"'multipartparsererror"
p245
I4492
sS'_num_pages'
p246
I3077
sS'empty_permitted'
p247
I3926
sS'register_to'
p248
I6717
sS"'args"
p249
I1615
sS'minvaluevalidator'
p250
I3644
sS'clearablefileinput'
p251
I3726
sS'_getframe'
p252
I6996
sS'login'
p253
I1376
sS'terminalipythonapp'
p254
I2751
sS'_files'
p255
I1226
sS'get_models'
p256
I552
sS"'`request"
p257
I1199
sS'250'
p258
I131
sS'get_language_from_path'
p259
I7283
sS'iterable'
p260
I5842
sS'255'
p261
I1001
sS'signals'
p262
I13
sS'closing_tag'
p263
I7133
sS'union'
p264
I815
sS'get_version'
p265
I1625
sS'default_locale_encoding'
p266
I3050
sS'.'
I9
sS'iter_format_modules'
p267
I6262
sS'_format_modules_cache'
p268
I6259
sS'get_default_timezone'
p269
I5864
sS'itervalues'
p270
I5835
sS'etag_match'
p271
I6487
sS'dropwhile'
p272
I2295
sS'__doc__'
p273
I5071
sS'function_name'
p274
I5070
sS'dots'
p275
I6357
sS'expandnode'
p276
I3243
sS'_fqdn'
p277
I1508
sS'_read_limited'
p278
I1169
sS"'send_mass_mail"
p279
I1272
sS'value_converters'
p280
I6060
sS'pytz'
p281
I7189
sS'child'
p282
I3259
sS'choicefield'
p283
I3855
sS'save_as_new'
p284
I4228
sS'escapejs'
p285
I5132
sS'_set'
p286
I397
sS'test_runner_class'
p287
I2873
sS'/home/djangoprojects/myproject'
p288
I1692
sS'basehandler'
p289
I1067
sS'basetemporalfield'
p290
I3818
sS'to-code'
p291
I2362
sS'force_text'
p292
I691
sS"'none"
p293
I3255
sS'__mro__'
p294
I3770
sS'jslex'
p295
I2299
sS'split'
p296
I419
sS'base64_alphabet'
p297
I5703
sS'attach_alternative'
p298
I1289
sS"'alpha"
p299
I7429
sS'spaceless'
p300
I5395
sS'templates'
p301
I2390
sS'tz2'
p302
I5602
sS'unhexlify'
p303
I5793
sS'conversion'
p304
I6529
sS"'total_forms"
p305
I4019
sS"'no_wrap"
p306
I2404
sS'_truncate_html'
p307
I7118
sS"'compilemessages"
p308
I1619
sS"'media"
p309
I4285
sS'is_multipart'
p310
I3991
sS'mime_encode'
p311
I4796
sS'use_natural_primary_keys'
p312
I1998
sS'urlparse'
p313
I4675
sS'setting_changed'
p314
I7294
sS'gzip'
p315
I2210
sS'gettext_noop'
p316
I2329
sS"'deserializer"
p317
I3120
sS'seen'
p318
I5831
sS'memoryview'
p319
I6142
sS'chunkiter'
p320
I4514
sS'previous'
p321
I2360
sS'had'
p322
I5310
sS'url_schemes'
p323
I2961
sS'collections'
p324
I1510
sS'literal_match'
p325
I3603
sS'relobj'
p326
I3236
sS'has'
p327
I633
sS'column_name'
p328
I2147
sS"'allow"
p329
I4836
sS'_get_post'
p330
I1214
sS'possible'
p331
I2086
sS'st_mode'
p332
I865
sS'allowed_variable_chars'
p333
I4842
sS'possibly'
p334
I6971
sS'errors_on_separate_row'
p335
I3941
sS'code_list'
p336
I7062
sS'unique'
p337
I1902
sS"'jul"
p338
I5970
sS'num_bytes'
p339
I4549
sS'funcname'
p340
I6308
sS'_func_defaults'
p341
I6956
sS'\\npost'
p342
I4671
sS'sqlflush'
p343
I2091
sS'force_unicode'
p344
I6145
sS'as_ul'
p345
I3968
sS"'wsgirequesthandler"
p346
I3298
sS'old'
p347
I2345
sS'new_file_name'
p348
I878
sS"'closecomment"
p349
I5324
sS'datetime_safe'
p350
I3658
sS"'bcc"
p351
I1423
sS'_existing_object'
p352
I4177
sS"'content"
p353
I1015
sS'djangoproject'
p354
I537
sS'for'
p355
I105
sS'bottom'
p356
I3086
sS'basecommand'
p357
I1514
sS'subclass'
p358
I2551
sS"'emailmessage"
p359
I1262
sS'defaultdict'
p360
I1561
sS'__ne__'
p361
I122
sS'clickjacking'
p362
I505
sS'needs_datetime_string_cast'
p363
I277
sS'localize_input'
p364
I4338
sS"'mediadefiningclass"
p365
I4286
sS'invalidtemplatelibrary'
p366
I4863
sS'o'
I3168
sS'_read_started'
p367
I1195
sS"'activate"
p368
I7196
sS'make_key'
p369
I164
sS'valid_boundary'
p370
I4503
sS'raised'
p371
I5090
sS'statements'
p372
I2773
sS'learn_cache_key'
p373
I5763
sS"'inf"
p374
I3797
sS'add_move'
p375
I6946
sS'wrap'
p376
I5140
sS'_size'
p377
I753
sS'_decorated_function'
p378
I5065
sS"'firstof"
p379
I5362
sS'getattribute'
p380
I3248
sS'support'
p381
I928
sS'_open'
p382
I912
sS'width'
p383
I782
sS'__cast'
p384
I6310
sS'optionparser'
p385
I1632
sS'cdata_tag'
p386
I6456
sS"'multipart/form-data"
p387
I4643
sS"'require_debug_false"
p388
I6648
sS'inside'
p389
I3547
sS"'multiple"
p390
I4701
sS'151'
p391
I5899
sS"'6"
p392
I7148
sS"'5"
p393
I7057
sS"'4"
p394
I3324
sS"'3"
p395
I1677
sS"'2"
p396
I1676
sS"'1"
p397
I1672
sS"'0"
p398
I1675
sS"'9"
p399
I7153
sS"'8"
p400
I7061
sS"''"
p401
I56
sS'exist'
p402
I171
sS"'/"
p403
I918
sS'timezone'
p404
I241
sS"'-"
p405
I1315
sS'_clean_fields'
p406
I3984
sS"'+"
p407
I1744
sS"'*"
p408
I386
sS"'extra"
p409
I4081
sS'dotted'
p410
I3530
sS'ifnotequal'
p411
I5372
sS'nodelist_true'
p412
I5282
sS'_django_deprecated_locales'
p413
I7319
sS'process_exception'
p414
I1091
sS'file_charset'
p415
I2321
sS"'can_delete"
p416
I4083
sS'developers'
p417
I4558
sS"'w"
p418
I2020
sS"'v"
p419
I7152
sS"'u"
p420
I7151
sS"'t"
p421
I3380
sS"'s"
p422
I750
sS"'r"
p423
I2241
sS'safedumper'
p424
I3202
sS"'p"
p425
I5877
sS'models'
p426
I548
sS"'~"
p427
I6147
sS'non_form_errors'
p428
I4069
sS"'z"
p429
I3173
sS"'y"
p430
I7155
sS"'x"
p431
I7154
sS"'g"
p432
I7142
sS"'f"
p433
I3382
sS"'e"
p434
I5029
sS"'d"
p435
I5908
sS"'c"
p436
I7141
sS"'b"
p437
I7140
sS"'a"
p438
I1691
sS'variable'
p439
I1690
sS"'n"
p440
I7149
sS"'m"
p441
I4750
sS"'l"
p442
I7147
sS"'k"
p443
I7146
sS"'j"
p444
I7145
sS'\\001-\\011\\013\\014\\016-\\177'
p445
I3593
sS"'h"
p446
I7143
sS'_count'
p447
I3078
sS"'_"
p448
I1525
sS"'^"
p449
I2958
sS"'\\"
p450
I6353
sS'getctime'
p451
I966
sS'kwargs_safe'
p452
I6418
sS'instance_type'
p453
I6336
sS'time'
p454
I127
sS'push'
p455
I4919
sS'serializer'
p456
I3123
sS'_assert_mutable'
p457
I4651
sS"'process_request"
p458
I1082
sS'chain'
p459
I612
sS'newheader'
p460
I5746
sS'activated'
p461
I1048
sS'get_callable'
p462
I3446
sS'w001'
p463
I547
sS'w002'
p464
I562
sS'migrationloader'
p465
I2472
sS"'required_css_class"
p466
I4006
sS"'ignorenonexistent"
p467
I3187
sS"'use"
p468
I1969
sS'item_attributes'
p469
I6204
sS'_servers'
p470
I418
sS'downloading'
p471
I3032
sS"'_fqdn"
p472
I1507
sS'choice'
p473
I3858
sS"'endif"
p474
I5380
sS'86400'
p475
I4809
sS'minute'
p476
I5884
sS'_post_parse_error'
p477
I1190
sS"'updated"
p478
I6251
sS'leave'
p479
I2817
sS'defaults'
p480
I568
sS'loads'
p481
I283
sS'months_alt'
p482
I5860
sS"'updates"
p483
I2371
sS'finditer'
p484
I5008
sS'oldvalue'
p485
I6706
sS'lstrip'
p486
I5585
sS'consume_next'
p487
I6748
sS'sign'
p488
I3421
sS'_func_code'
p489
I6954
sS"b'\\\\"
p490
I4590
sS'context_processors'
p491
I5103
sS'handle_fk_field'
p492
I3137
sS"'pgettext_lazy"
p493
I7253
sS'first_select'
p494
I3707
sS'current'
p495
I1029
sS"'tzinfo"
p496
I5882
sS"'lock_ex"
p497
I799
sS'falling'
p498
I5777
sS'file_path'
p499
I1324
sS'end_serialization'
p500
I3140
sS'pathname2url'
p501
I6904
sS"'your"
p502
I2690
sS'wordcount'
p503
I5180
sS"'this"
p504
I2198
sS'address'
p505
I2663
sS'apply_response_fixes'
p506
I1145
sS'date_re'
p507
I5929
sS'show_traceback'
p508
I1994
sS'context_data'
p509
I5499
sS'title'
p510
I2118
sS'startelement'
p511
I3222
sS'imatch'
p512
I7404
sS'upath'
p513
I1805
sS'subwidgets'
p514
I4000
sS'fake'
p515
I2567
sS'filter_func'
p516
I5011
sS'\\/strong'
p517
I6386
sS'st_mtime'
p518
I869
sS'_constructor_args'
p519
I6002
sS'contentnotrenderederror'
p520
I5493
sS'prefix_args'
p521
I3533
sS"'__iter__"
p522
I3196
sS'path_override'
p523
I4664
sS"'notprovided"
p524
I661
sS'``'
p525
I49
sS'smtp'
p526
I1370
sS"'initial_text"
p527
I4364
sS'_base64_decode_error'
p528
I4496
sS'lowercase'
p529
I2177
sS"'date"
p530
I1482
sS"'inmemoryuploadedfile"
p531
I991
sS'patch_cache_control'
p532
I5720
sS'+\\z'
p533
I6395
sS'_media'
p534
I4329
sS'dateinput'
p535
I3730
sS'unencoded_ampersands_re'
p536
I6363
sS'values'
p537
I108
sS'following'
p538
I2123
sS'_check_boolean_field_default_value'
p539
I493
sS'_update_unget_history'
p540
I4548
sS'locks'
p541
I857
sS'incremental'
p542
I6080
sS"'httponly"
p543
I4812
sS'allowed'
p544
I957
sS'methodtype'
p545
I6970
sS'token_comment'
p546
I4852
sS"'august"
p547
I5960
sS"'march"
p548
I5956
sS'debugnodelist'
p549
I5123
sS's2'
p550
I5997
sS's1'
p551
I5995
sS's*'
p552
I2447
sS's/'
p553
I1178
sS's-'
p554
I1343
sS'parameter'
p555
I3383
sS'old_path'
p556
I2994
sS's_'
p557
I925
sS's\\'
p558
I7272
sS"'ttl"
p559
I6185
sS'applications'
p560
I2355
sS'date'
p561
I3174
sS'such'
p562
I6948
sS'data'
p563
I203
sS'sy'
p564
I5985
sS'natural'
p565
I1967
sS"'partial"
p566
I4693
sS'ssl'
p567
I1350
sS'stdin'
p568
I5663
sS'st'
p569
I863
sS'si'
p570
I5821
sS'so'
p571
I1364
sS'sm'
p572
I7064
sS'modelformoptions'
p573
I4136
sS's`'
p574
I6033
sS'se'
p575
I5823
sS"'content-length"
p576
I4526
sS'default_attrs'
p577
I4373
sS'pdict'
p578
I4588
sS"'declared_fields"
p579
I3916
sS'years'
p580
I3684
sS'ttk'
p581
I6852
sS'ttl'
p582
I6172
sS"'runs"
p583
I2887
sS'load_handler'
p584
I1049
sS"'local_hostname"
p585
I1372
sS'__unicode__'
p586
I6138
sS'plural_forms_re'
p587
I2301
sS'outside'
p588
I5561
sS'recipients'
p589
I1386
sS'matches'
p590
I2584
sS'sorted'
p591
I1553
sS'\\'
I2662
sS'use_thousand_separator'
p592
I6278
sS'win32'
p593
I5615
sS'add_item'
p594
I6186
sS'slice_filter'
p595
I5196
sS'suffixes'
p596
I2278
sS'timeuntil'
p597
I5143
sS"'can"
p598
I1826
sS"'defaultstorage"
p599
I909
sS'djangojs'
p600
I2380
sS'url_scheme'
p601
I1197
sS'dstdiff'
p602
I7212
sS'cfg_convert'
p603
I6071
sS're_date'
p604
I3665
sS'already\\n'
p605
I3359
sS"'ambiguous_timezone"
p606
I4283
sS"'filefield"
p607
I3742
sS'call_command'
p608
I1539
sS'doublecolon_len'
p609
I6560
sS'migrationexecutor'
p610
I2558
sS'namelist'
p611
I2291
sS'warnoptions'
p612
I5678
sS'possibility'
p613
I3534
sS'symlinks_supported'
p614
I5567
sS'mime'
p615
I1393
sS'plen'
p616
I5020
sS'byte'
p617
I1864
sS'remainder'
p618
I2649
sS'__d'
p619
I6497
sS'setdefault'
p620
I393
sS'__m'
p621
I6499
sS'__t'
p622
I6503
sS'router'
p623
I238
sS'callback_kwargs'
p624
I1121
sS'__y'
p625
I6501
sS'split_domain_port'
p626
I4612
sS'migrate_success'
p627
I2608
sS'dictionary-like'
p628
I5113
sS'one'
p629
I1366
sS'http_redirect'
p630
I3321
sS'open'
p631
I348
sS'p_wait'
p632
I5683
sS"'process_template_response"
p633
I1086
sS'fmt'
p634
I3668
sS'2'
I69
sS'params'
p635
I86
sS'constants'
p636
I6855
sS'bits'
p637
I3000
sS'ipshell'
p638
I2745
sS'default_if_none'
p639
I5215
sS':'
I47
sS'multivaluefield'
p640
I3877
sS'setattr'
p641
I114
sS"'timeinput"
p642
I4298
sS'future'
p643
I5880
sS"'max_length"
p644
I2201
sS'_parse_date_fmt'
p645
I3667
sS'basedirs'
p646
I1838
sS"'msgattrib"
p647
I2433
sS"'autoescape"
p648
I5083
sS'_get_filename'
p649
I1337
sS'locations'
p650
I1854
sS'simple_url_2_re'
p651
I6370
sS'sax'
p652
I3216
sS'/span'
p653
I3967
sS'base_lang'
p654
I7352
sS"'http"
p655
I2962
sS'cache_page'
p656
I5756
sS"'wb"
p657
I360
sS'unsuitable'
p658
I2183
sS'text_args'
p659
I3526
sS'note'
p660
I1566
sS"'wt"
p661
I955
sS'clean_ipv6_address'
p662
I3736
sS'destroy'
p663
I2078
sS'template_dirs'
p664
I5414
sS"'endfor"
p665
I5367
sS'_prepare_data'
p666
I7418
sS'buffer'
p667
I1168
sS'compress'
p668
I363
sS'palette'
p669
I7093
sS'address_string'
p670
I3313
sS"'-h"
p671
I1618
sS'middot'
p672
I6358
sS'textarea'
p673
I3902
sS"'01"
p674
I5694
sS'testcase'
p675
I2858
sS'headerlist'
p676
I5752
sS'context_class'
p677
I5077
sS'_func_closure'
p678
I6952
sS'salt'
p679
I3406
sS'hmac'
p680
I5772
sS'cachekeywarning'
p681
I20
sS'truncatewords'
p682
I5173
sS'subprocess'
p683
I3047
sS'^-\\w'
p684
I7136
sS"'saturday"
p685
I5945
sS'is_url'
p686
I3012
sS'_dict'
p687
I5079
sS'xml'
p688
I3107
sS'old_style_list'
p689
I5202
sS'minspare'
p690
I3365
sS'http_bad_request'
p691
I3325
sS'translatablefile'
p692
I2313
sS'function-based'
p693
I5425
sS'reload_module'
p694
I6814
sS'_generator'
p695
I7109
sS'vary'
p696
I5741
sS'contentfile'
p697
I775
sS'zipfile'
p698
I2211
sS'classdef'
p699
I5543
sS'module_six_moves_urllib_request'
p700
I6899
sS"'-s"
p701
I2385
sS'class_types'
p702
I6785
sS'cache_key_culling_sql'
p703
I319
sS'language_cookie_name'
p704
I7367
sS'input_formats'
p705
I3819
sS'resource'
p706
I5490
sS'settings'
p707
I11
sS"'subject"
p708
I1437
sS'checkboxinput'
p709
I3727
sS'admins'
p710
I1296
sS'where'
p711
I272
sS"'base"
p712
I7125
sS'tkinter_messagebox'
p713
I6870
sS"'cache"
p714
I35
sS'proxy_bypass'
p715
I6930
sS'_handler_class'
p716
I1235
sS'basecookie'
p717
I4486
sS'add_header'
p718
I1498
sS"'head"
p719
I4841
sS"'text/html"
p720
I1290
sS'multiwidget'
p721
I4424
sS'sites'
p722
I5988
sS"'__file__"
p723
I5624
sS'clear_checkbox_id'
p724
I4358
sS'find_spec'
p725
I6722
sS'safemimemessage'
p726
I1451
sS'escapetext'
p727
I6775
sS'deleted_objects'
p728
I4217
sS"'key_prefix"
p729
I155
sS'many'
p730
I4763
sS"'_files"
p731
I1225
sS'the_path'
p732
I3033
sS's'
I55
sS'context_instance'
p733
I5437
sS'auth_user'
p734
I1284
sS'expression'
p735
I3473
sS'error_text'
p736
I2721
sS'reg-exp'
p737
I6756
sS'guts'
p738
I6643
sS"'formset"
p739
I4089
sS'lastgroup'
p740
I6586
sS"'widgets"
p741
I4138
sS'__class__'
p742
I606
sS'curr'
p743
I1581
sS'robotparser'
p744
I6878
sS'dotall'
p745
I2309
sS'use_x_forwarded_host'
p746
I4603
sS'sub_match'
p747
I3508
sS"'js"
p748
I2424
sS'_add_fallback'
p749
I7333
sS'combined'
p750
I4327
sS'formatdate'
p751
I1399
sS'formfield_callback'
p752
I4127
sS'enable'
p753
I2490
sS'get_charset'
p754
I1312
sS'inclusion_tag'
p755
I5076
sS'_expatparser'
p756
I3219
sS'wrapped_callback'
p757
I1122
sS"'textfield"
p758
I2167
sS'funcdef'
p759
I5546
sS'skipfile'
p760
I1031
sS'-\\s'
p761
I7178
sS'-\\w'
p762
I7101
sS"'raise"
p763
I1694
sS'secret_key'
p764
I3412
sS'save_form_data'
p765
I4109
sS'html_message'
p766
I1286
sS"'db_column"
p767
I2179
sS'var1'
p768
I5291
sS'fdel'
p769
I6334
sS'__init__'
p770
I95
sS'add_js'
p771
I4324
sS'base64d'
p772
I3419
sS'urllib_error'
p773
I6876
sS"'404"
p774
I3322
sS'var2'
p775
I5292
sS'module_has_submodule'
p776
I2560
sS'render_option'
p777
I4390
sS'validate_ipv6_address'
p778
I3621
sS'stringorigin'
p779
I4873
sS"'normalize"
p780
I7230
sS"'dark"
p781
I7071
sS'safedata'
p782
I4898
sS'groupby'
p783
I5231
sS'force_escape'
p784
I5187
sS'parse_cookie'
p785
I1223
sS'212'
p786
I5901
sS'\\s*\\'
p787
I6057
sS'pt_br'
p788
I2369
sS'rest'
p789
I5354
sS'_allow_fallback'
p790
I2944
sS'is_usable'
p791
I5412
sS"'final"
p792
I2981
sS'no-default-ignore'
p793
I2396
sS"'set-cookie"
p794
I1240
sS'\\s*|'
p795
I7308
sS'generator'
p796
I1392
sS'\\s*q'
p797
I7304
sS'tag_re'
p798
I4861
sS'module_six_moves_urllib_error'
p799
I6893
sS'topdown'
p800
I2450
sS'new_conn_created'
p801
I1381
sS'output_transaction'
p802
I1650
sS'msgmerge_options'
p803
I2358
sS"'other_dict"
p804
I5111
sS'wsgiserver'
p805
I3305
sS'email_mime_multipart'
p806
I6832
sS"'on"
p807
I5340
sS"'ispermalink"
p808
I6240
sS"'unique_id"
p809
I6197
sS"'debug"
p810
I480
sS'variable_attribute_separator'
p811
I4857
sS'renamed_methods'
p812
I409
sS'\\s*/'
p813
I7105
sS'blockcontext'
p814
I5443
sS'suspiciousfileoperation'
p815
I700
sS'slugify'
p816
I5145
sS'grouping'
p817
I6738
sS'pickled'
p818
I300
sS'_supported'
p819
I7295
sS'jython_reloader'
p820
I5688
sS'update_error_dict'
p821
I718
sS"'sqlclear"
p822
I1595
sS'get_app_configs'
p823
I1537
sS"'cache_key"
p824
I1900
sS'install_opener'
p825
I6902
sS'default_locale_path'
p826
I2430
sS'both_before'
p827
I6589
sS'app_or_project'
p828
I2968
sS'is_ignored'
p829
I2444
sS'exit'
p830
I1574
sS'migrationquestioner'
p831
I2476
sS'directory_permissions_mode'
p832
I939
sS'__name__'
p833
I607
sS'root_attributes'
p834
I6202
sS'package'
p835
I2458
sS'unknownhandler'
p836
I6925
sS'localized_fields'
p837
I4128
sS'handle_m2m_field'
p838
I3138
sS"'pattern"
p839
I2392
sS'content-type'
p840
I4501
sS'serializerdoesnotexist'
p841
I2010
sS'httppasswordmgrwithdefaultrealm'
p842
I6913
sS'current_timezone'
p843
I4273
sS'image'
p844
I798
sS'\\/b'
p845
I6382
sS'get_meta'
p846
I2172
sS'\\/i'
p847
I6381
sS'_prefix'
p848
I3521
sS'from_email'
p849
I1282
sS'max_expr'
p850
I5331
sS"'logging"
p851
I6653
sS'file_modified'
p852
I5611
sS'msg_data'
p853
I1310
sS'_set_name'
p854
I999
sS'complete'
p855
I2762
sS'verbatim'
p856
I4932
sS'pytree'
p857
I5538
sS"'slug"
p858
I3610
sS'paths_to_remove'
p859
I2969
sS'add_item_elements'
p860
I6205
sS'non-reversible'
p861
I6755
sS'with'
p862
I212
sS"'command"
p863
I1659
sS'suspiciousoperation'
p864
I698
sS'502'
p865
I4768
sS"'strsq"
p866
I4987
sS'503'
p867
I4770
sS'_time'
p868
I7188
sS"'language_session_key"
p869
I7256
sS'add_representer'
p870
I3209
sS'migrate'
p871
I2604
sS"'*+/"
p872
I3585
sS'migrations_to_squash'
p873
I2804
sS'al'
p874
I2805
sS'an'
p875
I188
sS'write_message'
p876
I1309
sS'as'
p877
I79
sS'at'
p878
I1739
sS'excluded_models'
p879
I2002
sS'get_data'
p880
I6427
sS'introspection'
p881
I1896
sS'mkstemp'
p882
I358
sS'parse_header'
p883
I1185
sS'render_node'
p884
I5040
sS'mimetypes'
p885
I1389
sS"'exception"
p886
I3304
sS'm2m_data'
p887
I3144
sS'base_path'
p888
I1871
sS'cmatches'
p889
I7406
sS'as_table'
p890
I3930
sS'loop_dict'
p891
I5267
sS'integer_types'
p892
I3098
sS'mask'
p893
I5641
sS"'feed"
p894
I6244
sS"'input_type"
p895
I4336
sS'original'
p896
I6136
sS'consider'
p897
I5429
sS'caused'
p898
I3515
sS'unused_char'
p899
I4564
sS"'daemonize"
p900
I3341
sS'gdbm'
p901
I6822
sS'end_tag'
p902
I5369
sS'tz'
p903
I678
sS'installed_models'
p904
I2615
sS'tt'
p905
I7214
sS'open_method'
p906
I2261
sS'tr'
p907
I3957
sS'tp'
p908
I6793
sS"'ipaddressfield"
p909
I3751
sS'radiofieldrenderer'
p910
I4414
sS'to'
p911
I559
sS'hasattr'
p912
I648
sS'th'
p913
I3958
sS'tf'
p914
I5927
sS'td'
p915
I3960
sS'te'
p916
I6114
sS'tb'
p917
I772
sS'returned'
p918
I1126
sS'mimebase'
p919
I1397
sS'\\nwould'
p920
I2845
sS'stream_or_iterable'
p921
I4570
sS"'server_port"
p922
I4608
sS'condition'
p923
I5298
sS'`'
I5828
sS'get_template_sources'
p924
I5478
sS'large'
p925
I4739
sS'default_port'
p926
I2670
sS'auto-reloader'
p927
I2685
sS'serve_forever'
p928
I3334
sS'sync'
p929
I2581
sS'debugparser'
p930
I4921
sS'pass'
p931
I103
sS'common_ancestor'
p932
I2538
sS'render_js'
p933
I4315
sS"'multi-status"
p934
I4695
sS'primary_key'
p935
I1903
sS"'sat"
p936
I5951
sS'escape_quotes'
p937
I6640
sS'use_tls'
p938
I1353
sS'top_errors'
p939
I3942
sS'method'
p940
I189
sS'full'
p941
I2093
sS'hash'
p942
I6312
sS'optparse'
p943
I1631
sS'loader_tags'
p944
I5100
sS'hours'
p945
I7182
sS'out_log'
p946
I5814
sS'pylibmccache'
p947
I450
sS'sender'
p948
I631
sS'total_forms'
p949
I4045
sS"'param"
p950
I7127
sS'_add_doc'
p951
I6790
sS'_handle_object'
p952
I3244
sS'action'
p953
I1668
sS'^\\\\/'
p954
I6638
sS'via'
p955
I964
sS'verbose'
p956
I1680
sS'minlengthvalidator'
p957
I3647
sS'bm_compatible'
p958
I5542
sS'django_1_6_0'
p959
I476
sS'pulls'
p960
I2349
sS'app_names'
p961
I2636
sS'select'
p962
I269
sS'executable'
p963
I5676
sS'copymode'
p964
I2998
sS'__to_language'
p965
I7328
sS'6'
I508
sS'_error_files'
p966
I5616
sS'more'
p967
I542
sS'proxyhandler'
p968
I6911
sS'allowed_chars'
p969
I5783
sS'_a-za-z'
p970
I3016
sS'_archive'
p971
I5578
sS'this_year'
p972
I3686
sS'delattr'
p973
I116
sS'unicodedata'
p974
I6254
sS'itercompat'
p975
I639
sS'installing'
p976
I2249
sS'add_library'
p977
I4942
sS'template_cache'
p978
I5479
sS"'makemessages"
p979
I1620
sS"'validate_max"
p980
I4088
sS"'store_true"
p981
I1693
sS'prompt'
p982
I2058
sS'model\\n'
p983
I2624
sS'latin-1'
p984
I6978
sS'check_test'
p985
I4384
sS'supported_platform'
p986
I1773
sS'states'
p987
I6580
sS'sense'
p988
I2803
sS'information'
p989
I543
sS'open_tags'
p990
I7132
sS'unescape_entities'
p991
I4489
sS'remove_potfiles'
p992
I2438
sS"'radioselect"
p993
I4303
sS'allow_overwrite'
p994
I364
sS"'not"
p995
I1132
sS'upto'
p996
I5010
sS'basetype'
p997
I1493
sS"'wed"
p998
I5949
sS'\\nget'
p999
I4670
sS'htmlentitydefs'
p1000
I6828
sS'mapping'
p1001
I5112
sS'filternode'
p1002
I5249
sS'argparse'
p1003
I1629
sS'isleap'
p1004
I5906
sS"'radio"
p1005
I4404
sS'register'
p1006
I470
sS'django'
p1007
I8
sS'thefile'
p1008
I2323
sS'internal_ips'
p1009
I667
sS"'base64"
p1010
I4524
sS'both_after'
p1011
I6631
sS"'else"
p1012
I5370
sS'checkbox'
p1013
I3842
sS'installed'
p1014
I635
sS"'time_zone"
p1015
I679
sS'args2'
p1016
I6011
sS'its'
p1017
I4822
sS'roots'
p1018
I6343
sS'config_string'
p1019
I7092
sS'setfeature'
p1020
I3265
sS'get_migratable_models'
p1021
I2100
sS'unparsed_entity_decl'
p1022
I3277
sS'set_many'
p1023
I202
sS'_string_concat'
p1024
I7284
sS'is_required'
p1025
I3712
sS'skipped'
p1026
I2035
sS'token_name'
p1027
I4927
sS'__deepcopy__'
p1028
I3782
sS'exec_'
p1029
I6990
sS'this_value_expr'
p1030
I5401
sS'buffering'
p1031
I5812
sS'_helper'
p1032
I5205
sS'pop_context'
p1033
I5275
sS"r'^\\s*"
p1034
I6053
sS"r'^\\s+"
p1035
I6376
sS'format_locations'
p1036
I6264
sS'build_potfiles'
p1037
I2435
sS"'emailinput"
p1038
I4288
sS'week'
p1039
I7180
sS'next_item'
p1040
I5209
sS'reduce'
p1041
I689
sS'wargs'
p1042
I5851
sS'`error`'
p1043
I3979
sS'doseq'
p1044
I6513
sS"'checked"
p1045
I4386
sS'operation'
p1046
I2521
sS'templateresponse'
p1047
I5514
sS"'block"
p1048
I4904
sS'_queryset'
p1049
I4187
sS"'__dict__"
p1050
I7008
sS'misses'
p1051
I6682
sS'submod'
p1052
I3456
sS'_client'
p1053
I426
sS"'include"
p1054
I5468
sS"'txt"
p1055
I2426
sS'build_attrs'
p1056
I3714
sS'localhost:8081'
p1057
I2872
sS'template_with_initial'
p1058
I4355
sS'proxy'
p1059
I257
sS'tablenames'
p1060
I1891
sS'o_wronly'
p1061
I884
sS'definition'
p1062
I4331
sS"'clean_"
p1063
I3987
sS'_wrapped_view'
p1064
I6024
sS'_isdst'
p1065
I7213
sS'index_output'
p1066
I1910
sS"'http_x_forwarded_host"
p1067
I4604
sS'inhibit_post_migrate'
p1068
I2071
sS'err_log'
p1069
I5816
sS'w'
I2325
sS'root_urlconf'
p1070
I1111
sS"'multipartparser"
p1071
I4491
sS'_resolve_name'
p1072
I6548
sS'major'
p1073
I7427
sS'spawnve'
p1074
I5682
sS'number'
p1075
I2677
sS'as_tuple'
p1076
I3814
sS'chunk_length'
p1077
I4529
sS'process_events'
p1078
I5651
sS'default_charset'
p1079
I1429
sS'guess'
p1080
I2199
sS"'nominates"
p1081
I1888
sS"'html"
p1082
I2425
sS'smartif'
p1083
I5234
sS'expanded_template'
p1084
I3011
sS'_handle_fk_field_node'
p1085
I3254
sS"'error_css_class"
p1086
I4011
sS'value_list'
p1087
I5848
sS'simple_tag'
p1088
I5068
sS'commentnode'
p1089
I5238
sS'_urllib_response_moved_attributes'
p1090
I6933
sS'get_unbound_function'
p1091
I6967
sS'create_variable_node'
p1092
I4952
sS'file_input_contradiction'
p1093
I3735
sS'bad_app_labels'
p1094
I2495
sS'strip_spaces_between_tags'
p1095
I5315
sS'plural_form_line'
p1096
I2464
sS"'datefmt"
p1097
I6117
sS'file_upload_temp_dir'
p1098
I1004
sS'0001_squashed_'
p1099
I2815
sS'ugettext'
p1100
I3905
sS'choice_value'
p1101
I4399
sS"'fmt"
p1102
I6115
sS'token_text'
p1103
I4853
sS'file_size'
p1104
I1043
sS'jan1_weekday'
p1105
I5919
sS'concrete_model'
p1106
I3134
sS'lib2to3'
p1107
I5531
sS'self'
p1108
I96
sS"'querydict"
p1109
I4449
sS'asvar'
p1110
I5327
sS'tagtype'
p1111
I5325
sS'also'
p1112
I2046
sS'tmpdir'
p1113
I5568
sS'timetuple'
p1114
I5917
sS'no-color'
p1115
I1695
sS"'input"
p1116
I4368
sS'stopfuturehandlers'
p1117
I1032
sS'content_params'
p1118
I1184
sS'local_attrs'
p1119
I3713
sS"'_queryset"
p1120
I4185
sS'bom_utf16_le'
p1121
I1809
sS'plat'
p1122
I1771
sS'id_attr'
p1123
I4409
sS"'exec"
p1124
I2768
sS'pickleerror'
p1125
I399
sS'allow_folders'
p1126
I3887
sS'requires_model_validation'
p1127
I1656
sS"'base_fields"
p1128
I3914
sS'is_aware'
p1129
I3157
sS'exe'
p1130
I3064
sS'exc'
p1131
I985
sS'tpl'
p1132
I3287
sS'ext'
p1133
I1002
sS"'openvariable"
p1134
I5319
sS'acceptable_endblocks'
p1135
I5465
sS'wsgi'
p1136
I3294
sS'datefield'
p1137
I3821
sS'sublist'
p1138
I5204
sS's_template_'
p1139
I3028
sS'session'
p1140
I7366
sS'wraps'
p1141
I5130
sS'indexerror'
p1142
I1582
sS'urlsplit'
p1143
I3555
sS'writer'
p1144
I395
sS"'proxy"
p1145
I4726
sS'failed'
p1146
I1878
sS'number_format'
p1147
I5161
sS'factor'
p1148
I6528
sS'key_func'
p1149
I136
sS'extra_files'
p1150
I2973
sS'pre_syncdb'
p1151
I2947
sS"'_body"
p1152
I4638
sS'reset_translations'
p1153
I5626
sS'synchronization'
p1154
I2065
sS'handle_app'
p1155
I1752
sS'active_readers'
p1156
I7032
sS'split_leading_dir'
p1157
I5584
sS'jsonserializer'
p1158
I3414
sS"'options"
p1159
I147
sS'rfc'
p1160
I4616
sS'urllib_response'
p1161
I6938
sS'library_name'
p1162
I5096
sS'error_row'
p1163
I3938
sS'set'
p1164
I167
sS'pubdate'
p1165
I6187
sS'sep'
p1166
I2276
sS'supported_code'
p1167
I7363
sS'normalize_col_name'
p1168
I2151
sS'endblock_re'
p1169
I7382
sS'_filter_name'
p1170
I5067
sS'see'
p1171
I534
sS'base62_alphabet'
p1172
I5701
sS'migration'
p1173
I2470
sS'#'
I540
sS"'st"
p1174
I5910
sS'deactivate'
p1175
I7225
sS'currently'
p1176
I2079
sS'_urlconfs'
p1177
I3437
sS"'primary_key"
p1178
I2152
sS'mutex'
p1179
I7028
sS'subdir'
p1180
I3010
sS"'zip"
p1181
I2239
sS'module_six_moves_urllib_robotparser'
p1182
I6939
sS"'backwards"
p1183
I2785
sS'state_frame'
p1184
I5286
sS'available'
p1185
I1558
sS'key_value'
p1186
I3234
sS'rmtree_errorhandler'
p1187
I2956
sS'synchronizing'
p1188
I2594
sS'os_err_exc_type'
p1189
I3051
sS'selectively'
p1190
I2580
sS'last_word'
p1191
I7137
sS'checkcommand'
p1192
I2903
sS'interface'
p1193
I2742
sS'render_value'
p1194
I4346
sS'reset_sequences'
p1195
I2067
sS'last'
p1196
I4569
sS"'etag"
p1197
I5731
sS'cacheddnsname'
p1198
I1250
sS'_get_queryset'
p1199
I4250
sS'supports_color'
p1200
I1770
sS'_create_attachments'
p1201
I1488
sS"'first"
p1202
I5273
sS'mlstripper'
p1203
I6421
sS"'show"
p1204
I2570
sS'connection'
p1205
I228
sS"'max_num"
p1206
I4085
sS'1034/1035'
p1207
I4617
sS'whole'
p1208
I3788
sS'load'
p1209
I384
sS'unicode_escape'
p1210
I6988
sS'migration_names'
p1211
I2532
sS'loaded_object_count'
p1212
I2233
sS'|~0-9a-z'
p1213
I3587
sS"'addrport"
p1214
I2676
sS'delete_many'
p1215
I205
sS"'caches"
p1216
I67
sS'_urllib_request_moved_attributes'
p1217
I6900
sS'tablename'
p1218
I1892
sS'_reverse_with_prefix'
p1219
I3520
sS"'xmlhttprequest"
p1220
I4628
sS"'basemodelform"
p1221
I4093
sS"'winerror"
p1222
I891
sS'silenced'
p1223
I1734
sS'args_safe'
p1224
I6417
sS"'blank"
p1225
I2166
sS"'supports_microseconds"
p1226
I4004
sS'representative'
p1227
I6762
sS'func'
p1228
I1151
sS'noargscommand'
p1229
I1764
sS"'time_format"
p1230
I6270
sS'interesting_cdata'
p1231
I6459
sS'__starttag_text'
p1232
I6464
sS'previous_page_number'
p1233
I3103
sS'error'
p1234
I467
sS'no-initial-data'
p1235
I2061
sS'validate_key'
p1236
I207
sS'pkg_resources'
p1237
I5486
sS'syntaxwarning'
p1238
I7260
sS'escape_mappings'
p1239
I6745
sS'manytoonerel'
p1240
I3197
sS"'inhibit_post_migrate"
p1241
I2072
sS'filter_argument_separator'
p1242
I4847
sS'unapplying'
p1243
I2612
sS'send_messages'
p1244
I1294
sS"'content_type"
p1245
I1186
sS'hexdigest'
p1246
I383
sS"'dateinput"
p1247
I4296
sS'2037'
p1248
I7423
sS"'///"
p1249
I6546
sS'streamhandler'
p1250
I2880
sS'loggerdict'
p1251
I6105
sS"'nodelist"
p1252
I5038
sS'safebytes'
p1253
I6778
sS'do_block'
p1254
I5459
sS'safestring'
p1255
I3661
sS'django_template_source'
p1256
I5122
sS'managementform'
p1257
I4032
sS'server_bind'
p1258
I3310
sS'send_mail'
p1259
I1280
sS'rfc3339_date'
p1260
I6158
sS"'monday"
p1261
I5940
sS'decimal'
p1262
I2207
sS'get_full_path'
p1263
I4618
sS'_file'
p1264
I953
sS'enoent'
p1265
I355
sS'amp'
p1266
I6396
sS"'field"
p1267
I2175
sS'parent_instance'
p1268
I4242
sS'sortable_virtual_fields'
p1269
I4132
sS'contextdict'
p1270
I5104
sS'pgettext:1c'
p1271
I2332
sS'secure_proxy_ssl_header'
p1272
I4624
sS'location'
p1273
I83
sS'sslerror'
p1274
I1379
sS'input'
p1275
I1194
sS"'query_string"
p1276
I1211
sS'format'
p1277
I1787
sS'unique_checks'
p1278
I4197
sS'get_internal_wsgi_application'
p1279
I2656
sS'camel_case_to_spaces'
p1280
I7179
sS'basememcachedcachemethods'
p1281
I408
sS'unresolved_references'
p1282
I621
sS'start_doctype_decl'
p1283
I3268
sS'projects'
p1284
I2354
sS'd'
I193
sS'entitiesforbidden'
p1285
I3276
sS'error_message'
p1286
I3828
sS"'rindex"
p1287
I6549
sS'yes/no'
p1288
I2846
sS'continue'
p1289
I1081
sS'divmod'
p1290
I6155
sS'reason_phrase'
p1291
I1237
sS'|1'
p1292
I7305
sS'_releaselock'
p1293
I6112
sS'logging_config'
p1294
I6656
sS"'443"
p1295
I4609
sS'render_value_in_context'
p1296
I5041
sS'file_ext'
p1297
I923
sS"'charset"
p1298
I1187
sS'resource_string'
p1299
I5487
sS"'sql_queries"
p1300
I668
sS'from_dict'
p1301
I1011
sS'tmp_path'
p1302
I357
sS"'__str__"
p1303
I6137
sS'unlockfileex'
p1304
I847
sS'be'
p1305
I175
sS'bf'
p1306
I3945
sS'netloc'
p1307
I3578
sS'_exception_middleware'
p1308
I1075
sS'pos_inf'
p1309
I5153
sS'response_headers'
p1310
I1238
sS'bp'
p1311
I5522
sS'br'
p1312
I3964
sS'bs'
p1313
I6989
sS"'variant"
p1314
I4777
sS'by'
p1315
I1755
sS'anything'
p1316
I6634
sS'htmlparseerror'
p1317
I6351
sS'db_table'
p1318
I245
sS'main_func'
p1319
I5685
sS'new_method_name'
p1320
I6030
sS'get_serializer_formats'
p1321
I3124
sS'into'
p1322
I314
sS'servers'
p1323
I1589
sS"'comment"
p1324
I4905
sS'defusedexpatparser'
p1325
I3239
sS'span'
p1326
I3965
sS'endelement'
p1327
I3224
sS'attrvalue'
p1328
I6471
sS'submit'
p1329
I3841
sS'custom'
p1330
I1982
sS'formatted_subject'
p1331
I6674
sS'incomment'
p1332
I7391
sS"'templates"
p1333
I5477
sS'set_app'
p1334
I3333
sS'forms_valid'
p1335
I4073
sS'_default_manager'
p1336
I2014
sS'3600'
p1337
I5887
sS'dry-run'
p1338
I2481
sS'/ul'
p1339
I4269
sS'link'
p1340
I4319
sS"'continue"
p1341
I4677
sS'atom'
p1342
I6222
sS'line'
p1343
I765
sS'up'
p1344
I2126
sS"'msgfmt"
p1345
I1818
sS'ul'
p1346
I4268
sS'rel_model'
p1347
I2030
sS"'gettext"
p1348
I7242
sS'booleanfield'
p1349
I555
sS'lastbuilddate'
p1350
I6229
sS'defined'
p1351
I2844
sS'parser'
p1352
I792
sS'unsafe'
p1353
I4834
sS'char'
p1354
I216
sS'gettext_module'
p1355
I7293
sS'urlvalidator'
p1356
I3563
sS'parsed'
p1357
I4833
sS'defines'
p1358
I1660
sS'field_type'
p1359
I2155
sS"'filesystemstorage"
p1360
I908
sS'fixing'
p1361
I2491
sS'is_email'
p1362
I6672
sS'invalid'
p1363
I1329
sS'template_with_clear'
p1364
I4357
sS'mod_name'
p1365
I3449
sS'sequence_sql'
p1366
I2250
sS"'private"
p1367
I5726
sS'elements'
p1368
I3691
sS"'external"
p1369
I6665
sS'a-f0-9'
p1370
I3572
sS'suspiciousmultipartform'
p1371
I699
sS'slice'
p1372
I3097
sS'new_modules'
p1373
I5622
sS'label_for'
p1374
I4401
sS'_handlerlist'
p1375
I6097
sS'lang'
p1376
I6245
sS'trail'
p1377
I6441
sS'age'
p1378
I3430
sS'merged_operations'
p1379
I2543
sS'fresh'
p1380
I2051
sS'func_closure'
p1381
I6962
sS'^*\\\\/'
p1382
I6633
sS'code'
p1383
I711
sS'partial'
p1384
I3493
sS'newheaders'
p1385
I5739
sS'reset_format_cache'
p1386
I6261
sS'results'
p1387
I3085
sS'existing'
p1388
I2372
sS'ignorecase'
p1389
I3575
sS'ignore_failures'
p1390
I5013
sS"'endcomment"
p1391
I5344
sS'func_code'
p1392
I6963
sS'use_null_fallback'
p1393
I7336
sS'saved_instances'
p1394
I4218
sS'send'
p1395
I1106
sS'dictconfigclass'
p1396
I6133
sS"'\\\\u"
p1397
I6413
sS'sent'
p1398
I1383
sS'uploaded'
p1399
I3848
sS"'nov"
p1400
I5974
sS"'now"
p1401
I5389
sS'make_style'
p1402
I1788
sS'compresslevel'
p1403
I7159
sS'reopened'
p1404
I774
sS'_raw_value'
p1405
I3974
sS'_close_files'
p1406
I4530
sS'syntax'
p1407
I2908
sS'categories'
p1408
I6168
sS'errordict'
p1409
I3899
sS'fewer'
p1410
I4075
sS'try'
p1411
I75
sS"'strm"
p1412
I6128
sS"'current_app"
p1413
I5084
sS'has_header'
p1414
I4801
sS'opt_dict'
p1415
I7053
sS'pluralize'
p1416
I5226
sS'getfilesystemencoding'
p1417
I5474
sS'int_to_base36'
p1418
I6526
sS'ext_convert'
p1419
I6070
sS'constant_string'
p1420
I4877
sS"'luhn"
p1421
I5767
sS'client_address'
p1422
I3314
sS'index'
p1423
I2542
sS'translate_token'
p1424
I5528
sS'request_middleware'
p1425
I1077
sS'ser_fmt'
p1426
I2258
sS"'request-uri"
p1427
I4741
sS'email_subject_prefix'
p1428
I1297
sS'paginator'
p1429
I3072
sS'led'
p1430
I5519
sS'recipient_list'
p1431
I1283
sS'nargs'
p1432
I1603
sS'len'
p1433
I208
sS'punct'
p1434
I6627
sS'lex'
p1435
I6585
sS'_params'
p1436
I1468
sS'fixture_files'
p1437
I2281
sS'empty_label'
p1438
I3685
sS'get_mod_func'
p1439
I3451
sS'receive'
p1440
I5055
sS"'foo"
p1441
I4473
sS'ctx'
p1442
I5753
sS'ip_address_validators'
p1443
I3625
sS"'0123456789abcdef"
p1444
I5696
sS"'for"
p1445
I4005
sS'staticmethod'
p1446
I2098
sS'deserializer'
p1447
I3126
sS'{'
I101
sS'makes'
p1448
I2802
sS'334'
p1449
I5904
sS"'gone"
p1450
I4732
sS'base2_alphabet'
p1451
I5693
sS'defusedxmlexception'
p1452
I3286
sS"'pk_field"
p1453
I4233
sS'ungettext'
p1454
I4014
sS'tools'
p1455
I1835
sS'urlsafe_base64_encode'
p1456
I6531
sS'msgs_with_ctxt'
p1457
I7360
sS'zip'
p1458
I437
sS'illegal'
p1459
I1663
sS'simplelazyobject'
p1460
I6328
sS'next'
p1461
I926
sS'duplicate'
p1462
I4211
sS'arg_vals'
p1463
I5015
sS"'jan"
p1464
I5965
sS'imported_objects'
p1465
I2758
sS"'npgettext_lazy"
p1466
I7255
sS'validationerror'
p1467
I709
sS'signing_backend'
p1468
I3411
sS"'keep_pot"
p1469
I2412
sS'pieces'
p1470
I5871
sS'this'
p1471
I522
sS'selected_fields'
p1472
I3131
sS'connection_reset'
p1473
I1027
sS"'sec"
p1474
I6521
sS"'see"
p1475
I4708
sS'process'
p1476
I1824
sS'lock'
p1477
I848
sS'stream_or_string'
p1478
I3127
sS'handle_merge'
p1479
I2506
sS"'sep"
p1480
I5972
sS"'set"
p1481
I286
sS"'http_success"
p1482
I7080
sS"'test_database"
p1483
I2574
sS'ie_sanitize'
p1484
I4525
sS'namespace'
p1485
I1636
sS"'max-age"
p1486
I4810
sS"'wsgi_application"
p1487
I3300
sS'testrunner'
p1488
I2854
sS'total_error_count'
p1489
I4070
sS"'use_natural_foreign_keys"
p1490
I1972
sS'load_middleware'
p1491
I1076
sS'email_host'
p1492
I1355
sS'blocks'
p1493
I5444
sS'singular'
p1494
I7266
sS'\\n\\thint'
p1495
I604
sS"'httpresponsenotallowed"
p1496
I4461
sS"'http_accept_language"
p1497
I7368
sS'_meth_func'
p1498
I6949
sS'potfiles'
p1499
I2434
sS'sorted_issues'
p1500
I1724
sS'allow'
p1501
I2132
sS'retval'
p1502
I4532
sS'dbm_gnu'
p1503
I6821
sS'_get_to_python'
p1504
I4180
sS'producer'
p1505
I4535
sS"b'\\\\\\\\"
p1506
I4589
sS'move'
p1507
I334
sS'csafedumper'
p1508
I3201
sS"'language"
p1509
I6177
sS'normal_row'
p1510
I3937
sS"'checkboxselectmultiple"
p1511
I4304
sS'output_charset'
p1512
I1458
sS'attachment'
p1513
I1490
sS"'datetime_input_formats"
p1514
I3824
sS"'tag"
p1515
I3206
sS'python'
p1516
I1683
sS'separators'
p1517
I3415
sS'baseinlineformset'
p1518
I4227
sS'\\/em'
p1519
I6384
sS'objects_in_fixture'
p1520
I2262
sS'__delitem__'
p1521
I4654
sS'pofile'
p1522
I2455
sS'date_value'
p1523
I3709
sS"'remote_addr"
p1524
I666
sS"'counter"
p1525
I5270
sS"'django_colors"
p1526
I1780
sS"'get_connection"
p1527
I1270
sS'frag'
p1528
I6067
sS'meta'
p1529
I665
sS'static'
p1530
I681
sS'cookiedict'
p1531
I4487
sS'meth'
p1532
I6302
sS'luhn'
p1533
I5769
sS"'forbidden"
p1534
I1137
sS'metavar'
p1535
I1742
sS'splitdatetimewidget'
p1536
I3733
sS"'blink"
p1537
I7056
sS'cword'
p1538
I1579
sS'mimetext'
p1539
I1394
sS"'admin"
p1540
I642
sS"'https"
p1541
I2963
sS"'get_language_info"
p1542
I7236
sS'strdq'
p1543
I4983
sS"'_post"
p1544
I1215
sS'sendmail'
p1545
I1388
sS"'awaiting"
p1546
I6752
sS"'expires"
p1547
I1907
sS'plural-forms'
p1548
I2304
sS'release'
p1549
I5881
sS'invoked_for_django'
p1550
I2429
sS'initialize'
p1551
I2752
sS'dictsort'
p1552
I5193
sS'file_permissions_mode'
p1553
I938
sS'_slugify'
p1554
I5146
sS'in_modify'
p1555
I5642
sS"'when"
p1556
I2738
sS'could'
p1557
I81
sS'lexer'
p1558
I4869
sS"'http_"
p1559
I5766
sS'fqdn'
p1560
I2667
sS'length'
p1561
I3839
sS'set_script_prefix'
p1562
I1155
sS"'checkbox"
p1563
I4385
sS'returncode'
p1564
I3058
sS'defaultstorage'
p1565
I971
sS"'insufficient"
p1566
I4780
sS'unhandled_params'
p1567
I5050
sS'owner'
p1568
I6007
sS"'_field"
p1569
I2190
sS'_get_width'
p1570
I780
sS'ordering'
p1571
I6345
sS'view_path'
p1572
I3443
sS'system'
p1573
I1732
sS'request_class'
p1574
I1229
sS'initial_set'
p1575
I3873
sS'default_args'
p1576
I3475
sS'ipaddressfield'
p1577
I3895
sS'pythonstartup'
p1578
I2739
sS"'httpresponseforbidden"
p1579
I4459
sS'chunk_buffer'
p1580
I764
sS'_raw_ipv6'
p1581
I2691
sS'input_iter'
p1582
I6761
sS'_css'
p1583
I4311
sS"'request"
p1584
I687
sS"'editable"
p1585
I4119
sS'template_name_list'
p1586
I5438
sS'decorating_function'
p1587
I6695
sS'exp'
p1588
I294
sS'_initialize_handlers'
p1589
I4632
sS'*|'
p1590
I7102
sS'all_date_checks'
p1591
I4194
sS'false'
p1592
I184
sS'_request'
p1593
I1206
sS'resolve_error_handler'
p1594
I1103
sS'second_item'
p1595
I5201
sS"'sept"
p1596
I5978
sS'*\\'
p1597
I6435
sS'has_default'
p1598
I556
sS'reloaded'
p1599
I2049
sS'/\\s*'
p1600
I6460
sS'regexfield'
p1601
I3827
sS'localedir'
p1602
I7335
sS"'service"
p1603
I4771
sS'tokenparser'
p1604
I4875
sS'reloader'
p1605
I5691
sS'inner_run'
p1606
I2701
sS'server_email'
p1607
I1298
sS"'\\n\\n"
p1608
I5248
sS'jun'
p1609
I6492
sS'**'
p1610
I60
sS'fallback'
p1611
I7338
sS'exponent'
p1612
I3813
sS"'hashvalue"
p1613
I6686
sS'fix_location_header'
p1614
I1069
sS'mail_admins'
p1615
I1295
sS'sql_custom'
p1616
I2777
sS'templatetags'
p1617
I5094
sS'_empty_value'
p1618
I4418
sS'dbm'
p1619
I6823
sS'_unpack_ipv4'
p1620
I6564
sS"'migrate"
p1621
I2838
sS'create_token'
p1622
I4934
sS"'localhost"
p1623
I3598
sS'checkregistry'
p1624
I645
sS'redirect'
p1625
I4715
sS'rfc2822_date'
p1626
I6151
sS'typedmultiplechoicefield'
p1627
I3875
sS"'nullbooleanselect"
p1628
I4301
sS'should'
p1629
I526
sS'terminal'
p1630
I2749
sS'entities'
p1631
I6829
sS'extract_tb'
p1632
I5661
sS"'get_by_natural_key"
p1633
I3150
sS'deleted_forms'
p1634
I4058
sS"'ugettext_noop"
p1635
I7247
sS"'inputstreamexhausted"
p1636
I4493
sS'handle'
p1637
I821
sS'clear_url_caches'
p1638
I3549
sS'=='
p1639
I121
sS"'requires_system_checks"
p1640
I1655
sS"'requires_model_validation"
p1641
I1653
sS'email_mime_text'
p1642
I6833
sS'configure_custom'
p1643
I6074
sS'non_atomic_requests'
p1644
I1094
sS"'can_order"
p1645
I4082
sS'_resolve_lookup'
p1646
I5033
sS"'unknown"
p1647
I2004
sS'total_form_count'
p1648
I4018
sS'httpresponseforbidden'
p1649
I4440
sS'seek_end'
p1650
I747
sS"'conditional_content_removal"
p1651
I4467
sS'allow_files'
p1652
I3886
sS'copyfileobj'
p1653
I5597
sS'all_fields'
p1654
I4104
sS'user_regex'
p1655
I3584
sS'migrations'
p1656
I2469
sS'email'
p1657
I1330
sS'templatetags_modules'
p1658
I5091
sS'f_globals'
p1659
I6997
sS"'content_length"
p1660
I1191
sS'checkboxfieldrenderer'
p1661
I4415
sS'file_upload_directory_permissions'
p1662
I944
sS"'that"
p1663
I3080
sS'_translations'
p1664
I5628
sS'translator_comment_mark'
p1665
I4855
sS"'author_email"
p1666
I6178
sS'truncatechars'
p1667
I5171
sS'itertools'
p1668
I611
sS'_mtimes'
p1669
I5613
sS'ch'
p1670
I6751
sS"'needs_autoescape"
p1671
I5017
sS"'and"
p1672
I1662
sS'cc'
p1673
I1476
sS'ca'
p1674
I1431
sS'__d2'
p1675
I6498
sS"'yellow"
p1676
I7046
sS'length_is'
p1677
I5195
sS'_find_boundary'
p1678
I4567
sS'ct'
p1679
I7439
sS'compression_formats'
p1680
I2236
sS'contains_nontext'
p1681
I4965
sS'error_output'
p1682
I1789
sS'get_limit_choices_to'
p1683
I3775
sS'>'
I209
sS'fset'
p1684
I5513
sS'best_doublecolon_len'
p1685
I6558
sS'*args'
p1686
I3523
sS'termios'
p1687
I5605
sS'__dt'
p1688
I7421
sS'_catalog'
p1689
I7340
sS'rbp'
p1690
I5530
sS'sequences\\n'
p1691
I2253
sS'app_dirs'
p1692
I2932
sS"'there"
p1693
I1801
sS'digest_size'
p1694
I5799
sS'c_int64'
p1695
I813
sS'compile_filter'
p1696
I4949
sS'basemodelformset'
p1697
I4174
sS'site'
p1698
I5999
sS'public_id'
p1699
I3289
sS'0|'
p1700
I6619
sS'handle_starttag'
p1701
I6476
sS'djangosafedumper'
p1702
I3203
sS'get_tag_uri'
p1703
I6161
sS'exit_code'
p1704
I5681
sS"'nonfield"
p1705
I3973
sS'conflicting'
p1706
I2499
sS'sql_indexes_for_model'
p1707
I2634
sS'response_fixes'
p1708
I1068
sS'v2'
p1709
I3865
sS'sql_indexes'
p1710
I2781
sS"'optional"
p1711
I1884
sS'off'
p1712
I5993
sS'write_po_file'
p1713
I2437
sS'patterns'
p1714
I2399
sS'command'
p1715
I1531
sS'filesystem'
p1716
I3004
sS'non-lazy'
p1717
I7346
sS'match_re'
p1718
I3888
sS'less'
p1719
I3083
sS"'http_not_modified"
p1720
I7082
sS'iterbytes'
p1721
I6986
sS'adminemailhandler'
p1722
I6654
sS'__lt__'
p1723
I2315
sS'web'
p1724
I2674
sS'trim_url'
p1725
I6437
sS'_templatetags_modules'
p1726
I5092
sS'combine'
p1727
I3894
sS'strings_only'
p1728
I3055
sS'fixer_util'
p1729
I5533
sS"'strict"
p1730
I6139
sS'en-us'
p1731
I7348
sS'initial_forms'
p1732
I4044
sS'checking'
p1733
I2282
sS"'run"
p1734
I1795
sS'best_doublecolon_end'
p1735
I6566
sS'handle_field'
p1736
I3136
sS'five'
p1737
I5392
sS"'import_by_path"
p1738
I6714
sS'current_fields'
p1739
I3921
sS'pgettext_lazy'
p1740
I4897
sS'header_query'
p1741
I5748
sS'save_new_objects'
p1742
I4192
sS'__reversed__'
p1743
I5840
sS'receive_data_chunk'
p1744
I1039
sS'replacement'
p1745
I6280
sS'read_events'
p1746
I5650
sS'invalid_tag'
p1747
I1800
sS'daylight'
p1748
I7209
sS'wsgihandler'
p1749
I1227
sS'flush'
p1750
I1050
sS'html_parser'
p1751
I6349
sS'syncdb'
p1752
I2839
sS's_imode'
p1753
I864
sS'writer_enters'
p1754
I7040
sS'_generate_cache_header_key'
p1755
I5757
sS'__setattr__'
p1756
I112
sS'systemrestart'
p1757
I5690
sS'merge'
p1758
I2488
sS'zbuf'
p1759
I7157
sS'_current_app'
p1760
I5516
sS'__getattr__'
p1761
I110
sS'does'
p1762
I169
sS'server_port'
p1763
I4607
sS"'_request"
p1764
I1205
sS'setlistdefault'
p1765
I4660
sS'importerror'
p1766
I78
sS'symlink'
p1767
I5573
sS"'all_fields"
p1768
I4099
sS"'published"
p1769
I6250
sS'loadnode'
p1770
I5311
sS'maxlengthvalidator'
p1771
I3650
sS'file_root'
p1772
I922
sS'__imul__'
p1773
I5854
sS'app_output'
p1774
I1750
sS"'slugfield"
p1775
I3754
sS'0o666'
p1776
I952
sS'_exit'
p1777
I2722
sS'use_base_manager'
p1778
I1999
sS'_reconstructor'
p1779
I6320
sS"'maxchildren"
p1780
I3346
sS'add_initial_prefix'
p1781
I3934
sS"'alters_data"
p1782
I5035
sS'letters'
p1783
I3022
sS'addbase'
p1784
I6934
sS're_newlines'
p1785
I7106
sS'current_version'
p1786
I6450
sS"'err_log"
p1787
I3386
sS'default_content_type'
p1788
I4791
sS'mangle_from_'
p1789
I1447
sS"'permission"
p1790
I2841
sS"'symlink"
p1791
I5572
sS'_parse_header_params'
p1792
I4587
sS'overflowerror'
p1793
I5160
sS'function'
p1794
I625
sS"'one"
p1795
I1745
sS'rwlock'
p1796
I388
sS"'splithiddendatetimewidget"
p1797
I4307
sS"'clear_checkbox_id"
p1798
I4372
sS"'use_natural_keys"
p1799
I1968
sS'inlineformset_factory'
p1800
I4240
sS'lock_ex'
p1801
I825
sS"'content-disposition"
p1802
I1499
sS'calls'
p1803
I7347
sS'places'
p1804
I3806
sS'default_from_email'
p1805
I1478
sS'has_previous'
p1806
I3100
sS'problem'
p1807
I2248
sS'number_value'
p1808
I7270
sS'app_path'
p1809
I3299
sS'data_value'
p1810
I3781
sS'int'
p1811
I143
sS"'interface"
p1812
I2743
sS'import_by_path'
p1813
I6712
sS'module_to_dict'
p1814
I1932
sS'inf'
p1815
I3810
sS'bufsize'
p1816
I979
sS"'safe"
p1817
I5176
sS'test_db_allows_multiple_connections'
p1818
I2901
sS'stream_class'
p1819
I777
sS'keyorder'
p1820
I5838
sS'system_id'
p1821
I3288
sS"'area"
p1822
I7128
sS'org/dc/elements/1'
p1823
I6237
sS'__newobj__'
p1824
I6317
sS'sites2'
p1825
I5998
sS'sites1'
p1826
I5996
sS'__bytes_cast'
p1827
I6307
sS'enddocument'
p1828
I3225
sS'eof'
p1829
I4568
sS'_fname'
p1830
I1322
sS'metaclass'
p1831
I7003
sS"'deactivate"
p1832
I7197
sS'new_datetime'
p1833
I5982
sS'dir_suffix'
p1834
I2446
sS"'sqlindexes"
p1835
I1597
sS'_charset'
p1836
I4790
sS'plural_re'
p1837
I7384
sS's/\\n'
p1838
I2713
sS'error_dict'
p1839
I713
sS'const'
p1840
I6597
sS"'indent"
p1841
I1958
sS'parentloop'
p1842
I5262
sS'add_metaclass'
p1843
I7006
sS'abstractdigestauthhandler'
p1844
I6917
sS'input_text'
p1845
I4351
sS'onum'
p1846
I6616
sS'decimalintegerliteral'
p1847
I6621
sS'get_template'
p1848
I5080
sS'fixture_object_count'
p1849
I2234
sS"'access"
p1850
I5564
sS"'/dev/null"
p1851
I5815
sS"'moved"
p1852
I4703
sS'raw_data'
p1853
I1040
sS'cmd'
p1854
I1635
sS'ugettext_noop'
p1855
I2335
sS'upload'
p1856
I1005
sS'cwd'
p1857
I7443
sS'email_message'
p1858
I1385
sS'pendingdeprecationwarning'
p1859
I6025
sS'_add_local_translations'
p1860
I7332
sS"'\\\\u0026"
p1861
I6405
sS"'\\\\u0027"
p1862
I6401
sS"'\\\\u0022"
p1863
I6402
sS'unrecognizedarchiveformat'
p1864
I5576
sS'tcgetattr'
p1865
I5665
sS'incompatible'
p1866
I1705
sS'+'
I163
sS'add_root_elements'
p1867
I6203
sS'get_script_prefix'
p1868
I3544
sS'model_list'
p1869
I2023
sS'consisting'
p1870
I3611
sS'counters'
p1871
I4516
sS'add_css'
p1872
I4325
sS'new_attr'
p1873
I6805
sS'db_for_write'
p1874
I281
sS'single_brace_start'
p1875
I4850
sS'codecs'
p1876
I1153
sS'get_template_from_string'
p1877
I5419
sS"'\\\\u002d"
p1878
I6407
sS'from\\n'
p1879
I3354
sS'mergedict'
p1880
I1207
sS'items'
p1881
I204
sS'post_sql_fields'
p1882
I2937
sS'digit_pattern'
p1883
I6058
sS'add_to_builtins'
p1884
I4883
sS'\\ncookies'
p1885
I4672
sS'secure'
p1886
I4804
sS'mimemessage'
p1887
I1398
sS'digittuple'
p1888
I3812
sS'create_select'
p1889
I3704
sS"'mailhost"
p1890
I6125
sS'httpdefaulterrorhandler'
p1891
I6908
sS'locale_dirs'
p1892
I1849
sS'_table'
p1893
I259
sS"'gettext_lazy"
p1894
I7243
sS'default_min_num'
p1895
I4029
sS"'get_current_timezone"
p1896
I7194
sS'negative'
p1897
I4545
sS'substitutions'
p1898
I4363
sS'filebasedcache'
p1899
I336
sS'find_template_cache'
p1900
I5480
sS'fixture_file'
p1901
I2254
sS'has_other_pages'
p1902
I3101
sS'request_started'
p1903
I1231
sS'get_runner'
p1904
I2850
sS'separated'
p1905
I1988
sS'to_path'
p1906
I5577
sS"'restricts"
p1907
I1950
sS"'mar"
p1908
I5967
sS'emit_pre_migrate_signal'
p1909
I2556
sS'settings_exception'
p1910
I1549
sS"'verbatim"
p1911
I4937
sS"'setting"
p1912
I7321
sS'word'
p1913
I2192
sS'err'
p1914
I1332
sS'work'
p1915
I1989
sS'smtpexception'
p1916
I1377
sS"'clear"
p1917
I4354
sS"'tags"
p1918
I488
sS'unapply_success'
p1919
I2613
sS"'introspect"
p1920
I2107
sS'dec_part'
p1921
I6742
sS'html_name'
p1922
I3954
sS'faked'
p1923
I2609
sS'handle_entityref'
p1924
I6425
sS"'baseinlineformset"
p1925
I4102
sS'provide'
p1926
I187
sS'verify'
p1927
I3850
sS'handler_config'
p1928
I6086
sS'tkinter_tix'
p1929
I6849
sS'represent_scalar'
p1930
I3205
sS"'critical"
p1931
I484
sS'callbackfilter'
p1932
I6678
sS'find_command'
p1933
I1802
sS'content_disposition'
p1934
I3035
sS"b'\\r\\n\\r\\n"
p1935
I4578
sS'baserunservercommand'
p1936
I2727
sS'earlier'
p1937
I525
sS"'december"
p1938
I5964
sS"'clear_template"
p1939
I4366
sS'mimemultipart'
p1940
I1396
sS"'col"
p1941
I7124
sS'num_entries'
p1942
I372
sS'order'
p1943
I1865
sS'itemgetter'
p1944
I6984
sS'body_encoding'
p1945
I1404
sS"'no_location"
p1946
I2408
sS'package_name'
p1947
I6726
sS'functools'
p1948
I688
sS'namespace_dict'
p1949
I3503
sS"'thursday"
p1950
I5943
sS'language_code'
p1951
I2652
sS'help_text'
p1952
I3762
sS'byref'
p1953
I818
sS'newretval'
p1954
I5509
sS"'yy"
p1955
I3671
sS'clear_checkbox_label'
p1956
I4353
sS'writestring'
p1957
I6206
sS'no-location'
p1958
I2407
sS"'loggers"
p1959
I6090
sS'to_locale'
p1960
I6256
sS'then'
p1961
I579
sS'them'
p1962
I2487
sS'fragment'
p1963
I3580
sS'_split_statements'
p1964
I2926
sS"'compile_string"
p1965
I4891
sS'break'
p1966
I760
sS'rpartition'
p1967
I1563
sS"'discover"
p1968
I2851
sS'they'
p1969
I1970
sS'**kwargs'
p1970
I3524
sS'relative_dir'
p1971
I2990
sS'is_safe_url'
p1972
I6545
sS'httpresponsepermanentredirect'
p1973
I4438
sS'choicefieldrenderer'
p1974
I4406
sS'managementutility'
p1975
I1546
sS'l'
I442
sS'startdoctypedeclhandler'
p1976
I3282
sS'hidden_fields'
p1977
I3943
sS'_get_model_from_node'
p1978
I3246
sS'functiontype'
p1979
I623
sS"'rows"
p1980
I4376
sS"'__call__"
p1981
I6075
sS'schemes'
p1982
I3576
sS"'http_server_error"
p1983
I7085
sS'trailing_empty_content_re'
p1984
I6392
sS'trim_whitespace'
p1985
I7291
sS'flock'
p1986
I855
sS"'thread"
p1987
I3369
sS'temp_lib'
p1988
I5388
sS'+\\'
p1989
I2666
sS"'immutablelist"
p1990
I5849
sS'unclosed'
p1991
I4967
sS'+|'
p1992
I4993
sS"'_meta"
p1993
I4253
sS'__setitem__'
p1994
I1452
sS'module_six_moves_urllib'
p1995
I6942
sS'original_urlencode'
p1996
I6486
sS'filenames'
p1997
I1858
sS'created'
p1998
I380
sS'installs'
p1999
I2820
sS'traceback'
p2000
I1302
sS'static_url'
p2001
I683
sS'creates'
p2002
I1879
sS'problem_fields'
p2003
I549
sS'+='
p2004
I429
sS'render'
p2005
I1129
sS'is_localized'
p2006
I3767
sS'another'
p2007
I2828
sS'bound_func'
p2008
I6010
sS'start_object'
p2009
I3133
sS'regex_compiled'
p2010
I3540
sS'iskeyword'
p2011
I2189
sS'url_name'
p2012
I3439
sS'unquote_plus'
p2013
I6485
sS'gnutranslations'
p2014
I7326
sS'unknown_source'
p2015
I4856
sS'unicodeencodeerror'
p2016
I1435
sS'new_matches'
p2017
I3500
sS'compiled_result'
p2018
I4958
sS'requires_system_checks'
p2019
I1658
sS"'file_path"
p2020
I1323
sS'/li'
p2021
I3970
sS'sql_destroy_model'
p2022
I2920
sS'form_field'
p2023
I4157
sS"'ask_merge"
p2024
I2531
sS'filterexpression'
p2025
I4868
sS'target'
p2026
I2593
sS'handle_m2m'
p2027
I3235
sS'base36_to_int'
p2028
I6523
sS'reader_enters'
p2029
I7036
sS"'language_bidi"
p2030
I676
sS'extractfile'
p2031
I5595
sS'use_ipv6'
p2032
I2688
sS'subcommands'
p2033
I1559
sS"'validate_min"
p2034
I4087
sS'parentmod'
p2035
I3455
sS'0123456789abcdefghijklmnopqrstuvwxyz'
p2036
I6527
sS'yesno'
p2037
I5217
sS"'\\r"
p2038
I1430
sS"'\\t"
p2039
I4976
sS'ifchanged'
p2040
I5381
sS"'\\n"
p2041
I1317
sS'maxspare'
p2042
I3364
sS'contents'
p2043
I1944
sS"'\\\\"
p2044
I917
sS'__new__'
p2045
I3919
sS'indexes'
p2046
I2141
sS'fname'
p2047
I345
sS"'number_"
p2048
I2194
sS'sig_ign'
p2049
I5670
sS'acquire'
p2050
I7037
sS'optimizer'
p2051
I2792
sS'view_type'
p2052
I3517
sS'urlizetrunc'
p2053
I5178
sS'^\\s'
p2054
I6379
sS'label_suffix'
p2055
I3766
sS'optimized'
p2056
I2814
sS'truncate_len'
p2057
I7116
sS'get_accessor_name'
p2058
I4231
sS'com/en/dev/ref/settings/'
p2059
I2910
sS'bytesio'
p2060
I725
sS'endchannelelement'
p2061
I6219
sS'format_html'
p2062
I3904
sS'a-za-z0-9'
p2063
I6454
sS'debugnode'
p2064
I5247
sS'css_classes'
p2065
I3949
sS'status_ok'
p2066
I2310
sS'left'
p2067
I5520
sS'universal_newlines'
p2068
I3053
sS"'month"
p2069
I3674
sS'd-'
p2070
I1341
sS'template_file'
p2071
I2997
sS"'append"
p2072
I1794
sS'sql_file'
p2073
I2942
sS'a-za-z'
p2074
I6391
sS'implementation'
p2075
I3372
sS"'default_error_messages"
p2076
I3771
sS'conf/locale'
p2077
I2353
sS"'_extract"
p2078
I3040
sS'can_fail'
p2079
I3448
sS"'non-authoritative"
p2080
I4688
sS'||'
p2081
I6628
sS'do'
p2082
I1697
sS'df'
p2083
I5926
sS'db'
p2084
I235
sS'dc'
p2085
I6234
sS'connection_params'
p2086
I1371
sS"'formset_factory"
p2087
I4016
sS'dt'
p2088
I5989
sS'runs'
p2089
I1924
sS'is_protected_type'
p2090
I3179
sS"'workdir"
p2091
I3342
sS'414'
p2092
I4740
sS'415'
p2093
I4742
sS'416'
p2094
I4744
sS'417'
p2095
I4747
sS'410'
p2096
I4731
sS'411'
p2097
I4733
sS'412'
p2098
I4734
sS'413'
p2099
I4736
sS'ensure_echo_on'
p2100
I5662
sS'normalize_newlines'
p2101
I5144
sS'418'
p2102
I4749
sS'_checklevel'
p2103
I6042
sS'w/'
p2104
I6488
sS'w3'
p2105
I6223
sS"'conceal"
p2106
I7060
sS'forbid_multi_line_headers'
p2107
I1259
sS'attrgetter'
p2108
I6322
sS'new_path'
p2109
I2995
sS"'_choices"
p2110
I4252
sS'reversed_text'
p2111
I5259
sS'field_list'
p2112
I4130
sS'unable'
p2113
I748
sS"'errors"
p2114
I224
sS'props'
p2115
I6078
sS'post_override'
p2116
I4666
sS'templateliteral'
p2117
I5373
sS'active_writers'
p2118
I7033
sS'handle_extensions'
p2119
I2296
sS'post_callback'
p2120
I5508
sS'safeunicode'
p2121
I6781
sS'wb'
p2122
I2529
sS'starttag_re'
p2123
I6431
sS'wo'
p2124
I2601
sS'wm'
p2125
I5636
sS'use_etags'
p2126
I5735
sS"'symlinks"
p2127
I2386
sS'ctypes'
p2128
I809
sS'inner_args'
p2129
I6769
sS'received'
p2130
I5053
sS'request`'
p2131
I1200
sS'archiveexception'
p2132
I3042
sS'locale_dir'
p2133
I2314
sS'cache_choices'
p2134
I4246
sS'receiver'
p2135
I622
sS'requests'
p2136
I4764
sS'com'
p2137
I3063
sS'get_objects'
p2138
I2011
sS'emit_post_migrate_signal'
p2139
I2040
sS'set_charset'
p2140
I1461
sS'jsonresponse'
p2141
I4445
sS'unapplied'
p2142
I2725
sS'list-tags'
p2143
I1797
sS'__wrapper__'
p2144
I6309
sS'_post_clean'
p2145
I3986
sS'usermodel'
p2146
I2842
sS"'gettempdir"
p2147
I976
sS'dictconfig'
p2148
I6038
sS"'http_host"
p2149
I4605
sS's\\x1b'
p2150
I7068
sS'get_language_from_request'
p2151
I7281
sS'fixer_base'
p2152
I5532
sS'delete_cookie'
p2153
I4814
sS'file_or_path'
p2154
I788
sS'rel_to'
p2155
I2154
sS'syndicationfeed'
p2156
I6163
sS'httpshandler'
p2157
I6921
sS'__len__'
p2158
I737
sS's__in'
p2159
I4258
sS'default_palette'
p2160
I7091
sS'html4_singlets'
p2161
I7122
sS'extend_nodelist'
p2162
I4946
sS'rfc850_date'
p2163
I6507
sS'add_error'
p2164
I3976
sS'applied'
p2165
I2571
sS'variable_tag_end'
p2166
I4858
sS'gnu'
p2167
I1834
sS'nodelist_loop'
p2168
I5257
sS'zlib'
p2169
I332
sS"'multiplehiddeninput"
p2170
I4293
sS'tagfind'
p2171
I6453
sS"'both"
p2172
I3623
sS'defaultfeed'
p2173
I6253
sS'baseconverter'
p2174
I5705
sS"'author_link"
p2175
I6180
sS'property'
p2176
I424
sS"'empty_permitted"
p2177
I4052
sS'kernel32'
p2178
I844
sS'renamemethodsbase'
p2179
I404
sS'dumped'
p2180
I1951
sS'conf'
p2181
I10
sS'ulong_ptr'
p2182
I827
sS"'source"
p2183
I2389
sS'_subparts'
p2184
I1467
sS'perform'
p2185
I2588
sS'punctuation'
p2186
I6442
sS'_builtin_context_processors'
p2187
I5102
sS'synch'
p2188
I387
sS'can_write'
p2189
I7031
sS"'locked"
p2190
I4755
sS'/optgroup'
p2191
I4397
sS'formset_factory'
p2192
I4079
sS'configure_filter'
p2193
I6103
sS'mimemixin'
p2194
I1442
sS"b'-"
p2195
I1336
sS'client'
p2196
I427
sS'the'
p2197
I168
sS'opt_label'
p2198
I1610
sS"'migrate_success"
p2199
I7088
sS'unique_check'
p2200
I4201
sS'to_unicode'
p2201
I6173
sS'adding'
p2202
I4163
sS'npath'
p2203
I1804
sS'do_extends'
p2204
I5466
sS'floatformat'
p2205
I5158
sS'url_markup_template'
p2206
I4359
sS'dictreprs'
p2207
I5836
sS'is_valid'
p2208
I3933
sS'cur_lineno'
p2209
I7401
sS'patch_vary_headers'
p2210
I5738
sS"'tag_exists"
p2211
I487
sS'raise_error'
p2212
I4597
sS"'default_storage"
p2213
I910
sS'stopiteration'
p2214
I3245
sS'parse_boundary_stream'
p2215
I4575
sS'is_compressed'
p2216
I3417
sS"'feb"
p2217
I5966
sS'_urllib_parse_moved_attributes'
p2218
I6886
sS'security'
p2219
I1141
sS'multivaluedictkeyerror'
p2220
I5844
sS"'all_valid"
p2221
I4017
sS"'_non_atomic_requests"
p2222
I1095
sS'flatten'
p2223
I1448
sS"'signer"
p2224
I3425
sS'decimaldigits'
p2225
I6626
sS'_set_regex'
p2226
I3830
sS"'limit_value"
p2227
I3638
sS'^a-za-z0-9'
p2228
I2117
sS'0-9a-fa-f'
p2229
I6613
sS'/'
I374
sS'_urlize'
p2230
I5134
sS"'filters"
p2231
I6102
sS'add_blocks'
p2232
I5445
sS'gmtime'
p2233
I1409
sS'keep_pot'
p2234
I2420
sS'fileobj'
p2235
I7160
sS'post'
p2236
I1208
sS'rearrange'
p2237
I2127
sS'render_css'
p2238
I4318
sS'obj'
p2239
I544
sS'months'
p2240
I3660
sS'accepts'
p2241
I1986
sS'autodiscover_modules'
p2242
I6716
sS"'regex"
p2243
I6641
sS'feature_external_ges'
p2244
I3266
sS'_entity_re'
p2245
I7175
sS'initial_text'
p2246
I4350
sS'float'
p2247
I2208
sS'rendering'
p2248
I2974
sS"'no_color"
p2249
I1696
sS'buf_size'
p2250
I1166
sS'typecast_timestamp'
p2251
I240
sS'genericipaddressfield'
p2252
I3896
sS'author'
p2253
I6233
sS're_escaped'
p2254
I5867
sS'was'
p2255
I182
sS'orig_vars'
p2256
I7007
sS'memoryhandler'
p2257
I6122
sS'encoder'
p2258
I4837
sS'encoded'
p2259
I1868
sS'true'
p2260
I181
sS'reset'
p2261
I3280
sS"'thousand_separator"
p2262
I6275
sS'write_items'
p2263
I6218
sS'non_field_errors'
p2264
I707
sS"'gettext_noop"
p2265
I7244
sS'args_generator'
p2266
I6419
sS'ziparchive'
p2267
I5598
sS'emit'
p2268
I6662
sS'stream_created'
p2269
I1319
sS'has_bom'
p2270
I1806
sS'set_cookie'
p2271
I4803
sS'do_translate'
p2272
I7354
sS'abstract'
p2273
I255
sS'default_chunk_size'
p2274
I729
sS'missing_fields'
p2275
I4151
sS'guessed'
p2276
I2205
sS'max_header_size'
p2277
I4576
sS"'specify"
p2278
I2480
sS'archive'
p2279
I2954
sS"'fileno"
p2280
I806
sS'date_check'
p2281
I4207
sS'_check_test_runner'
p2282
I492
sS'number_equal'
p2283
I4551
sS'test'
p2284
I517
sS'clear_cdata_mode'
p2285
I6461
sS'rssuserland091feed'
p2286
I6230
sS'operators'
p2287
I5524
sS'truncate'
p2288
I1057
sS'update'
p2289
I89
sS'+-'
p2290
I5933
sS'simplecookie'
p2291
I4432
sS"'localize"
p2292
I3791
sS"isn\\'t"
p2293
I1686
sS'modules'
p2294
I2852
sS'iglob'
p2295
I2284
sS'default_translation'
p2296
I7349
sS'escapejs_filter'
p2297
I5152
sS'get_language'
p2298
I675
sS'global'
p2299
I567
sS'zone'
p2300
I4278
sS'bpython'
p2301
I2731
sS'graph'
p2302
I2513
sS"'yes"
p2303
I2081
sS'predicate'
p2304
I6338
sS'__exit__'
p2305
I769
sS'handle_app_config'
p2306
I1751
sS'trans_null'
p2307
I7263
sS'seemingly'
p2308
I1873
sS'check_1_6_compatibility'
p2309
I490
sS'entries'
p2310
I253
sS'ip_address'
p2311
I3604
sS'configure_root'
p2312
I6093
sS'p'
I791
sS'setitem'
p2313
I6325
sS'streaming_content'
p2314
I4826
sS'sequence_reset_sql'
p2315
I2251
sS'messagemiddleware'
p2316
I574
sS'upper'
p2317
I1183
sS"'version"
p2318
I156
sS'm_args'
p2319
I6021
sS'all_models'
p2320
I2099
sS'initialized'
p2321
I7344
sS'appear'
p2322
I1930
sS"'booleanfield"
p2323
I2164
sS'convertingdict'
p2324
I6046
sS'target_app_labels_only'
p2325
I2578
sS'seqs'
p2326
I2923
sS'input_attrs'
p2327
I4348
sS'error_messages'
p2328
I3763
sS'abstractbasicauthhandler'
p2329
I6914
sS'selected_html'
p2330
I4394
sS'base16_alphabet'
p2331
I5695
sS"'no_obsolete"
p2332
I2409
sS'appears'
p2333
I5462
sS'change'
p2334
I5492
sS"'file_move_safe"
p2335
I872
sS'unescape_string_literal'
p2336
I4881
sS"'http_content_type"
p2337
I4499
sS'autodetector'
p2338
I2473
sS"'hidden"
p2339
I4335
sS'usually'
p2340
I5241
sS'get_path_info'
p2341
I1177
sS"'max_decimal_places"
p2342
I3805
sS'431'
p2343
I4765
sS'label_tag'
p2344
I3950
sS'regardless'
p2345
I1936
sS'extra'
p2346
I1133
sS'pythondeserializer'
p2347
I3156
sS'get_random_string'
p2348
I2830
sS'marked'
p2349
I2351
sS'safemimemultipart'
p2350
I1255
sS'currsize'
p2351
I6683
sS'invalid_block_tag'
p2352
I4957
sS'regex'
p2353
I3467
sS'httpd'
p2354
I3331
sS'cookiejar'
p2355
I6826
sS"'safemimemultipart"
p2356
I1265
sS"'flup"
p2357
I3375
sS'current_app'
p2358
I3543
sS"'mail_admins"
p2359
I1273
sS'live'
p2360
I2869
sS'https'
p2361
I535
sS'noreversematch'
p2362
I3445
sS"'get_fixed_timezone"
p2363
I7191
sS'dlen'
p2364
I5025
sS'support_legacy'
p2365
I5044
sS'var_node'
p2366
I4951
sS'allow_migrate'
p2367
I1895
sS'cat'
p2368
I6226
sS'labeled'
p2369
I1796
sS'can'
p2370
I773
sS'model_identifier'
p2371
I3198
sS'trans'
p2372
I7261
sS'get_key_func'
p2373
I135
sS'ignore_patterns'
p2374
I2418
sS'_standard_context_processors'
p2375
I5101
sS'_populate'
p2376
I3490
sS'httpresponsenotmodified'
p2377
I4439
sS'old_file'
p2378
I883
sS'non-dict'
p2379
I4838
sS'deprecation_warning'
p2380
I6031
sS'get_templatetags_modules'
p2381
I4886
sS'_get_request'
p2382
I1198
sS'get_cache_key'
p2383
I5759
sS'positional'
p2384
I5054
sS"'incremental"
p2385
I6081
sS'make_view_atomic'
p2386
I1092
sS'product'
p2387
I2213
sS'__next__'
p2388
I3142
sS'ret_ip'
p2389
I6577
sS'commit'
p2390
I2816
sS'compatibility'
p2391
I475
sS'apply_start'
p2392
I2605
sS'cacheinfo'
p2393
I6681
sS'convert_apps'
p2394
I2516
sS'rlcompleter'
p2395
I2759
sS'opts'
p2396
I2618
sS'nullbooleanselect'
p2397
I3728
sS'outer'
p2398
I5803
sS'ended'
p2399
I2188
sS'fasttypes'
p2400
I6692
sS'started_at'
p2401
I2710
sS'memoryfileuploadhandler'
p2402
I1046
sS'\\r\\n'
p2403
I4378
sS'builtins'
p2404
I4884
sS'forms'
p2405
I2468
sS'yaml'
p2406
I3110
sS'multiline'
p2407
I2308
sS'cookielib'
p2408
I6825
sS'pluralmatch'
p2409
I7398
sS"'_fork"
p2410
I3368
sS'builtin_serializers'
p2411
I3106
sS'format_html_join'
p2412
I4262
sS'nonlocal_root'
p2413
I6700
sS'halt'
p2414
I1028
sS'getmessage'
p2415
I6666
sS'not'
p2416
I44
sS'lang_code'
p2417
I7280
sS'nov'
p2418
I6496
sS'now'
p2419
I275
sS"'migrate_label"
p2420
I7087
sS'drop'
p2421
I2776
sS'status_code_text'
p2422
I1158
sS'post-migrate'
p2423
I2948
sS"'close"
p2424
I4825
sS'followlinks'
p2425
I2451
sS'handle_data'
p2426
I6424
sS'alter_sql'
p2427
I2914
sS'exceptionreporter'
p2428
I6644
sS'em'
p2429
I6383
sS'el'
p2430
I5724
sS'domain'
p2431
I1440
sS'en'
p2432
I7300
sS"'port"
p2433
I2890
sS'ee'
p2434
I6623
sS'become_daemon'
p2435
I3387
sS"'prints"
p2436
I2790
sS'subn'
p2437
I2181
sS'year'
p2438
I3688
sS'passwordinput'
p2439
I4344
sS'et'
p2440
I5659
sS'happen'
p2441
I4554
sS'dirname'
p2442
I946
sS'eq'
p2443
I2539
sS'shown'
p2444
I2639
sS'space'
p2445
I7002
sS'looking'
p2446
I5125
sS"'maxthreads"
p2447
I3371
sS'includenode'
p2448
I5455
sS'regex_match'
p2449
I7364
sS'year_field'
p2450
I3682
sS'args'
p2451
I324
sS'getcwd'
p2452
I2971
sS'argv'
p2453
I1547
sS'dependencies'
p2454
I2037
sS"'split"
p2455
I4010
sS'contenttooshorterror'
p2456
I6898
sS"'load_handler"
p2457
I1023
sS"'css"
p2458
I4309
sS'smtp_ssl'
p2459
I1369
sS"'internal"
p2460
I839
sS'fastcgi_help'
p2461
I2654
sS'511'
p2462
I4785
sS'510'
p2463
I4783
sS'comma_separated_int_list_re'
p2464
I3630
sS'lambda'
p2465
I443
sS"'max_value"
p2466
I3643
sS'get_fqdn'
p2467
I1373
sS'variables'
p2468
I5030
sS'parse_name'
p2469
I2260
sS'xx'
p2470
I6615
sS'msgattrib\\n'
p2471
I2459
sS'meta_override'
p2472
I4668
sS'message'
p2473
I710
sS'size'
p2474
I738
sS'auto_id'
p2475
I3924
sS"'max_entries"
p2476
I149
sS'unlink'
p2477
I983
sS'silent'
p2478
I5245
sS"'endfilter"
p2479
I5360
sS"'is_safe"
p2480
I5019
sS'weekdays'
p2481
I5862
sS'timestampsigner'
p2482
I3420
sS'max_length'
p2483
I1901
sS"'abcdefghijklmnopqrstuvwxyz0123456789_"
p2484
I4909
sS'script_url'
p2485
I1244
sS'de_at'
p2486
I1825
sS'configured'
p2487
I1535
sS"'reserved"
p2488
I4712
sS'that'
p2489
I173
sS'ix'
p2490
I5802
sS'file_pos'
p2491
I794
sS'than'
p2492
I215
sS'writable'
p2493
I1874
sS'templatetags_modules_candidates'
p2494
I5093
sS'_trans'
p2495
I7264
sS'accessed'
p2496
I5512
sS"'sigttou"
p2497
I5667
sS"'samefile"
p2498
I874
sS'other_dict'
p2499
I5109
sS"'hevent"
p2500
I841
sS'iriencode'
p2501
I5166
sS'idstring'
p2502
I1406
sS'notimplementederror'
p2503
I185
sS'tag_function'
p2504
I5062
sS"'skip_validation"
p2505
I1710
sS'default_validators'
p2506
I3758
sS'data_list'
p2507
I3882
sS"'check_for_language"
p2508
I7238
sS'unittest2'
p2509
I7425
sS'begin'
p2510
I5032
sS'urlunquote'
p2511
I6510
sS'removedindjango20warning'
p2512
I1634
sS']'
I40
sS'nullhandler'
p2513
I6646
sS'unmigrated'
p2514
I2045
sS'_text_chars'
p2515
I7119
sS"'_callback"
p2516
I3492
sS'mro'
p2517
I6301
sS'invalidcachebackenderror'
p2518
I18
sS'unittests'
p2519
I511
sS'pgen2'
p2520
I5537
sS'tkconstants'
p2521
I6854
sS'mw_instance'
p2522
I1080
sS"'please"
p2523
I2847
sS'checkmessage'
p2524
I463
sS'_get_closed'
p2525
I755
sS"'-0000"
p2526
I6157
sS'loadname'
p2527
I5421
sS'iri_to_uri'
p2528
I3433
sS'ratio'
p2529
I5335
sS'|\\\\'
p2530
I3592
sS'dfmt'
p2531
I6116
sS'save_base'
p2532
I3146
sS'only'
p2533
I1365
sS"'trimmed"
p2534
I7409
sS'ignorablewhitespace'
p2535
I3220
sS"'ipv6"
p2536
I3307
sS"'ipv4"
p2537
I3624
sS"'cachekeywarning"
p2538
I38
sS"'multiwidget"
p2539
I4305
sS"'dumpdata"
p2540
I1592
sS'_moveditems'
p2541
I6806
sS'f_ok'
p2542
I880
sS"'datetime_format"
p2543
I6276
sS'splitquery'
p2544
I6892
sS'verbosity'
p2545
I1667
sS'configurator'
p2546
I6047
sS'softspace'
p2547
I1056
sS'comment_tag_start'
p2548
I4846
sS"'sender"
p2549
I1419
sS'alternative_subtype'
p2550
I1501
sS"'-_"
p2551
I5704
sS"'saved"
p2552
I4112
sS"'-i"
p2553
I2222
sS"'renderer"
p2554
I4419
sS"'-o"
p2555
I1876
sS"'-n"
p2556
I1966
sS"'-l"
p2557
I1822
sS"'model"
p2558
I4137
sS"'-a"
p2559
I1976
sS"'-e"
p2560
I1963
sS"'-d"
p2561
I2327
sS'refto'
p2562
I2628
sS'3'
I153
sS"'-x"
p2563
I1830
sS"'rendered"
p2564
I5503
sS'create_models'
p2565
I2622
sS'import'
p2566
I3
sS"'-q"
p2567
I2359
sS"'-w"
p2568
I5677
sS"'-v"
p2569
I1666
sS"'-t"
p2570
I1793
sS"'stream"
p2571
I1306
sS'notice'
p2572
I1565
sS"'wsgi"
p2573
I1193
sS"'initial_data"
p2574
I2096
sS"'application/atom+xml"
p2575
I6243
sS'collect_sql'
p2576
I2788
sS'installation'
p2577
I5428
sS"'remaining"
p2578
I4542
sS"'seek"
p2579
I743
sS"'-6"
p2580
I2679
sS'obj_dict'
p2581
I5502
sS"'7"
p2582
I7059
sS'vary_on'
p2583
I460
sS'templateloader'
p2584
I5423
sS'dispatch'
p2585
I3393
sS'group_name'
p2586
I1730
sS'badsignature'
p2587
I3398
sS"'migrate_heading"
p2588
I7086
sS'_object_dict'
p2589
I4179
sS'addfilter'
p2590
I6120
sS'decimal_pos'
p2591
I6271
sS'path_hooks'
p2592
I6736
sS'ustring_re'
p2593
I7164
sS'visible_fields'
p2594
I3993
sS'smtpserverdisconnected'
p2595
I1380
sS"'found"
p2596
I4706
sS"'strdq"
p2597
I4986
sS'sigttou'
p2598
I5669
sS'translatorcommentwarning'
p2599
I7259
sS'these'
p2600
I578
sS'trans_36'
p2601
I5806
sS"'author_name"
p2602
I6179
sS"'memoryfileuploadhandler"
p2603
I1022
sS'check_errors'
p2604
I5655
sS'use_l10n'
p2605
I3700
sS"'internalhigh"
p2606
I840
sS'cache_middleware_alias'
p2607
I5762
sS"'http_not_found"
p2608
I7084
sS'modulename'
p2609
I2857
sS'lazystream'
p2610
I4513
sS'stdout'
p2611
I1307
sS'utils'
p2612
I25
sS'meta_path'
p2613
I6731
sS'dummycache'
p2614
I322
sS'text_node'
p2615
I3262
sS'__wrapped__'
p2616
I6708
sS'dot_pattern'
p2617
I6054
sS"'current_timezone"
p2618
I4282
sS'getpos'
p2619
I6473
sS'dry_run'
p2620
I2494
sS'proto'
p2621
I6319
sS'media'
p2622
I684
sS"'befmmnn"
p2623
I3673
sS"'openblock"
p2624
I5317
sS'block_re'
p2625
I7379
sS'current_len'
p2626
I7131
sS'http_host'
p2627
I4614
sS'endpos'
p2628
I6465
sS'validate'
p2629
I1717
sS'robotfileparser'
p2630
I6941
sS'toktext'
p2631
I6587
sS'_load_serializers'
p2632
I3117
sS'fixture_label'
p2633
I2245
sS'add_option'
p2634
I1665
sS'default_error_messages'
p2635
I3759
sS'new_objects'
p2636
I4219
sS'load_label'
p2637
I2246
sS'iso_input_formats'
p2638
I6260
sS'_mutable'
p2639
I4648
sS'_post'
p2640
I1217
sS'httpbasicauthhandler'
p2641
I6915
sS'addinfourl'
p2642
I6937
sS'months_3_rev'
p2643
I5976
sS'handle_file_complete'
p2644
I4520
sS'struct'
p2645
I5773
sS'specified_apps'
p2646
I2509
sS'add-comments'
p2647
I2366
sS"'offset"
p2648
I831
sS'header_names'
p2649
I1481
sS'role'
p2650
I1784
sS"'offsethigh"
p2651
I832
sS'gettext_lazy'
p2652
I2330
sS'iterlists'
p2653
I4656
sS'simple_server'
p2654
I3291
sS'\\ncreated'
p2655
I2554
sS'read'
p2656
I353
sS'get_dump_object'
p2657
I3164
sS'using'
p2658
I309
sS'execution'
p2659
I1877
sS'recipient'
p2660
I1293
sS'parent_link'
p2661
I4223
sS'binary_type'
p2662
I6786
sS"'method_decorator"
p2663
I6015
sS'`content`'
p2664
I4827
sS'attname'
p2665
I3135
sS'error_css_class'
p2666
I4012
sS'signed_value'
p2667
I3426
sS't'
I3511
sS'output'
p2668
I1241
sS"'render_"
p2669
I4314
sS'base_location'
p2670
I941
sS'construct_instance_exclude'
p2671
I4160
sS'com/en/1'
p2672
I560
sS'uppercase'
p2673
I6389
sS"'email"
p2674
I4342
sS'\\nthe'
p2675
I1922
sS'_winreg'
p2676
I6884
sS'_get_kwargs'
p2677
I1544
sS"'q"
p2678
I7150
sS'do_filter'
p2679
I5353
sS'include_is_allowed'
p2680
I5305
sS'filter_separator'
p2681
I4848
sS'httpresponseredirect'
p2682
I4437
sS"'project"
p2683
I2836
sS"'|"
p2684
I4906
sS"'content-encoding"
p2685
I4820
sS'unmigrated_apps'
p2686
I2589
sS'attr_list'
p2687
I5664
sS'throw'
p2688
I6603
sS'endtag_re'
p2689
I6432
sS'src'
p2690
I861
sS'id_for_label'
p2691
I3705
sS'^_`'
p2692
I3586
sS'uploadfileexception'
p2693
I1025
sS'modelformmetaclass'
p2694
I4142
sS'processor'
p2695
I5118
sS'send_mass_mail'
p2696
I1291
sS"'o"
p2697
I5891
sS'warn_msg'
p2698
I7402
sS'extendserror'
p2699
I5442
sS'operator'
p2700
I690
sS'your'
p2701
I528
sS'loc'
p2702
I6265
sS'log'
p2703
I1344
sS'datetimeawarejsonencoder'
p2704
I3178
sS'removing'
p2705
I5430
sS'is_iterable'
p2706
I640
sS'outdict'
p2707
I4581
sS'start'
p2708
I1041
sS"'i"
p2709
I7144
sS'irreversibly'
p2710
I2077
sS'_fields_'
p2711
I830
sS'field_dict'
p2712
I4135
sS'_levelnames'
p2713
I6044
sS'node_app'
p2714
I2544
sS'taghelpernode'
p2715
I5057
sS"'getvalue"
p2716
I3141
sS'__get__'
p2717
I6006
sS'has_next'
p2718
I3099
sS'foreignkey'
p2719
I2157
sS'default'
p2720
I179
sS'serialized'
p2721
I2038
sS'table_name'
p2722
I2115
sS'pbkdf2'
p2723
I5795
sS'0-9a-fa-z'
p2724
I6611
sS'regex_helper'
p2725
I3434
sS'reverse_lazy'
p2726
I3548
sS'templatesyntaxerror'
p2727
I4866
sS'html_initial_id'
p2728
I3995
sS'_content_length'
p2729
I4510
sS'describe'
p2730
I2523
sS'site_id'
p2731
I498
sS"'gz"
p2732
I2237
sS"'method"
p2733
I3339
sS'smart_unicode'
p2734
I6144
sS'moves'
p2735
I232
sS'readinto'
p2736
I1053
sS"'output"
p2737
I1991
sS'storage'
p2738
I911
sS'valid'
p2739
I2195
sS'you'
p2740
I50
sS'_urllib_error_moved_attributes'
p2741
I6894
sS'django_table_names'
p2742
I2921
sS"'help_texts"
p2743
I4141
sS"'imagefield"
p2744
I3743
sS'app_config'
p2745
I553
sS'registry'
p2746
I469
sS'decimal_separator'
p2747
I6277
sS'b64decode'
p2748
I284
sS'lookups'
p2749
I3491
sS'cache_clear'
p2750
I3550
sS'rendering_attrs'
p2751
I5495
sS'original_lookup'
p2752
I3528
sS"'commands"
p2753
I1524
sS'strings'
p2754
I2350
sS"'timefield"
p2755
I3738
sS'decimal_sep'
p2756
I6737
sS"'list"
p2757
I1799
sS'month'
p2758
I3698
sS'^\\s*trans\\s+'
p2759
I7378
sS'-\\'
p2760
I3590
sS'-_'
p2761
I2834
sS'-e'
p2762
I2383
sS'pythonrc'
p2763
I2741
sS"'migrations"
p2764
I2044
sS'rstrip'
p2765
I1179
sS'nodes'
p2766
I2642
sS"'july"
p2767
I5959
sS'\\d\\d'
p2768
I3666
sS'dateformat'
p2769
I5131
sS'very'
p2770
I1681
sS'find_fixtures'
p2771
I2257
sS'pre-migrate'
p2772
I2945
sS"r'|^"
p2773
I3588
sS'invalidpage'
p2774
I3069
sS'new_name'
p2775
I2174
sS'--'
p2776
I1584
sS'block_content'
p2777
I4936
sS'-+'
p2778
I6624
sS"'original"
p2779
I5570
sS'-5'
p2780
I797
sS"'ansicon"
p2781
I1777
sS'manages'
p2782
I2562
sS'-1'
p2783
I7441
sS'-='
p2784
I1170
sS'urlencode'
p2785
I4595
sS'cookies'
p2786
I1219
sS'get_app_config'
p2787
I1747
sS'process_request'
p2788
I1083
sS'multiplehiddeninput'
p2789
I3725
sS'fileproxymixin'
p2790
I728
sS'__iadd__'
p2791
I5853
sS'new_operations'
p2792
I2812
sS'*|\\*'
p2793
I7299
sS'super_set'
p2794
I5839
sS'fastcgi_options'
p2795
I1591
sS"'too"
p2796
I4762
sS"'use_reloader"
p2797
I2684
sS'management_form'
p2798
I4036
sS"'_ordering"
p2799
I4066
sS'assertraisesregex'
p2800
I7017
sS'modify'
p2801
I2133
sS'errorlist'
p2802
I3900
sS'strong'
p2803
I6385
sS'min_length'
p2804
I3785
sS'i18n_open'
p2805
I4982
sS"'email_file_path"
p2806
I1325
sS'popen'
p2807
I3049
sS'daemonize'
p2808
I3378
sS'force_str'
p2809
I405
sS'http_client'
p2810
I6830
sS'_producer'
p2811
I4536
sS'_lazymodule'
p2812
I6798
sS'expatreader'
p2813
I3217
sS'bound_data'
p2814
I3774
sS'href'
p2815
I4320
sS'chunks'
p2816
I757
sS"'lock_sh"
p2817
I800
sS'use_func'
p2818
I5857
sS'object_data'
p2819
I4152
sS'takes'
p2820
I1765
sS'contains'
p2821
I222
sS"'umask"
p2822
I3350
sS'compress_sequence'
p2823
I7163
sS'pgettext_lazy:1c'
p2824
I2338
sS'djcache'
p2825
I338
sS'__reduce__'
p2826
I6297
sS'before_import_registry'
p2827
I6719
sS"'off"
p2828
I5341
sS'base56'
p2829
I5716
sS"'//"
p2830
I4622
sS'decr_version'
p2831
I227
sS'_to_tuple'
p2832
I5729
sS'quantize'
p2833
I5165
sS'option_list'
p2834
I1606
sS'assigned-to'
p2835
I2720
sS'_localtime'
p2836
I7221
sS'raw_cookie'
p2837
I1220
sS'mw_class'
p2838
I1079
sS'as_'
p2839
I5403
sS'integrityerror'
p2840
I2212
sS'max_num_form_count'
p2841
I4024
sS'max_digits'
p2842
I3809
sS'exclude'
p2843
I1829
sS'lacks'
p2844
I7271
sS'_errors'
p2845
I3928
sS'tokenbase'
p2846
I5517
sS"'arg_sep"
p2847
I5007
sS'processors'
p2848
I5115
sS'template_string_if_invalid'
p2849
I5014
sS'select_html'
p2850
I3715
sS'\\w+|'
p2851
I6364
sS'fp'
p2852
I1445
sS'tried'
p2853
I3506
sS'tries'
p2854
I2729
sS'fd'
p2855
I356
sS'fg'
p2856
I7098
sS'fh'
p2857
I2530
sS'fk'
p2858
I4229
sS'fn'
p2859
I1807
sS'a'
I53
sS'escapedata'
p2860
I4899
sS'name2codepoint'
p2861
I7174
sS'zerodivisionerror'
p2862
I5336
sS'cyclenode'
p2863
I5242
sS"'__unicode__"
p2864
I5549
sS'inline'
p2865
I4241
sS'doesnotexist'
p2866
I3153
sS"'load_template_source"
p2867
I5424
sS'default_cache_alias'
p2868
I41
sS'y-'
p2869
I6159
sS'help'
p2870
I1554
sS'can_introspect_autofield'
p2871
I2163
sS'_closable_objects'
p2872
I1146
sS'basename'
p2873
I1000
sS"'redirect_url"
p2874
I1246
sS'translators_comment_start'
p2875
I7396
sS"'lc_messages"
p2876
I1853
sS'inlineforeignkeyfield'
p2877
I4161
sS'to_field'
p2878
I4243
sS'actually'
p2879
I2486
sS'getpid'
p2880
I1411
sS'new_method_proxy'
p2881
I6316
sS'yn'
p2882
I2808
sS'min_value'
p2883
I3790
sS'parent_pat'
p2884
I3496
sS'urlretrieve'
p2885
I2955
sS':\\d+'
p2886
I3573
sS'notation_name'
p2887
I3275
sS'idhost'
p2888
I1415
sS'rsplit'
p2889
I2289
sS"'managementform"
p2890
I4037
sS'httplib'
p2891
I6831
sS'fully'
p2892
I3452
sS'declarativefieldsmetaclass'
p2893
I3918
sS'close_caches'
p2894
I124
sS'stopped'
p2895
I2895
sS"'title"
p2896
I6174
sS'max_num'
p2897
I4041
sS'hfile'
p2898
I850
sS'unquote'
p2899
I6348
sS'apps/models'
p2900
I1965
sS"'compatibility"
p2901
I643
sS'absolute_path'
p2902
I3013
sS'_bin_to_long'
p2903
I5788
sS"'ignores"
p2904
I2224
sS'prepare_value'
p2905
I3772
sS'evens'
p2906
I5770
sS'beyond'
p2907
I6552
sS'event'
p2908
I3240
sS'can_rollback_ddl'
p2909
I1920
sS'ljust'
p2910
I5182
sS'regexes'
p2911
I6581
sS'since'
p2912
I7184
sS'get_declared_fields'
p2913
I3910
sS'improperlyconfigured'
p2914
I24
sS'buffer_'
p2915
I762
sS'7'
I566
sS'issue'
p2916
I1736
sS"'must"
p2917
I6344
sS'dirs'
p2918
I1852
sS'to_delete'
p2919
I2918
sS'has_vary_header'
p2920
I5747
sS'old_handler'
p2921
I5668
sS'parse_bits'
p2922
I5047
sS'base'
p2923
I16
sS'basememcachedcache'
p2924
I412
sS'order_by'
p2925
I2016
sS"b'\\r\\n"
p2926
I4582
sS'\\nto'
p2927
I2501
sS'ns_pattern'
p2928
I3461
sS'parseaddr'
p2929
I1402
sS'pyyaml'
p2930
I3111
sS"'__html__"
p2931
I6415
sS"'wednesday"
p2932
I5942
sS'dir_'
p2933
I2277
sS'module_to_search'
p2934
I6721
sS'tkmessagebox'
p2935
I6871
sS'expecting'
p2936
I5404
sS'query_string'
p2937
I4649
sS"'loaddata"
p2938
I2095
sS'generatorexit'
p2939
I3166
sS'noncapture'
p2940
I6746
sS'encoding'
p2941
I242
sS'reflected'
p2942
I2600
sS'_init_translation_catalog'
p2943
I7330
sS"'help"
p2944
I1583
sS'_iterator'
p2945
I4829
sS'posixpath'
p2946
I2951
sS'token_kwargs'
p2947
I5043
sS'get_max_age'
p2948
I5728
sS'overlaying'
p2949
I2996
sS'element_node'
p2950
I3264
sS'cleaned_line'
p2951
I2929
sS'scheme'
p2952
I3043
sS'schema'
p2953
I2561
sS'xframeoptionsmiddleware'
p2954
I506
sS'_non_form_errors'
p2955
I4035
sS'makemessages'
p2956
I2421
sS'modelformset_factory'
p2957
I4226
sS'translation'
p2958
I671
sS'_assertraisesregex'
p2959
I7016
sS'hashlib'
p2960
I327
sS'_caches'
p2961
I97
sS'rendered_widgets'
p2962
I4427
sS'str'
p2963
I280
sS"'min"
p2964
I3794
sS"'load_initial_data"
p2965
I2062
sS'registered_checks'
p2966
I646
sS'_get_regex'
p2967
I3831
sS'etags'
p2968
I6535
sS'value_from_object'
p2969
I4121
sS'null'
p2970
I1915
sS'splitdatetimefield'
p2971
I3826
sS"'_object_dict"
p2972
I4178
sS'bz2'
p2973
I2214
sS'lib'
p2974
I4941
sS'from_current_timezone'
p2975
I3718
sS'timeval'
p2976
I1407
sS'keep_blank_values'
p2977
I4650
sS"'threaded"
p2978
I3370
sS"'type"
p2979
I4340
sS'timeinput'
p2980
I3732
sS"'maxrequests"
p2981
I3347
sS'quote'
p2982
I4596
sS'rhs'
p2983
I6314
sS'delitem'
p2984
I6326
sS'closable'
p2985
I4821
sS'silent_variable_failure'
p2986
I696
sS'glob1'
p2987
I385
sS"'hr"
p2988
I7129
sS'clear'
p2989
I206
sS'ifequalnode'
p2990
I5290
sS'clean'
p2991
I2125
sS'old_attr'
p2992
I6804
sS"'alternative"
p2993
I1502
sS'httperrorprocessor'
p2994
I6926
sS'configure_formatter'
p2995
I6100
sS'getproxies'
p2996
I6906
sS'app_labels'
p2997
I1746
sS'http_server_error'
p2998
I3326
sS'commas'
p2999
I2966
sS'_create_attachment'
p3000
I1491
sS"'locales"
p3001
I1832
sS'warn_about_renamed_method'
p3002
I6028
sS"'an"
p3003
I1964
sS"'am"
p3004
I5879
sS'variablenode'
p3005
I4876
sS"'ab"
p3006
I1346
sS'parent_name'
p3007
I5450
sS'deprecationwarning'
p3008
I6026
sS'parameters'
p3009
I5550
sS"'unauthorized"
p3010
I4719
sS'//purl'
p3011
I6236
sS'decimal_digits'
p3012
I5706
sS'pretty'
p3013
I7438
sS"'pgettext"
p3014
I7252
sS'a-za-z_'
p3015
I6609
sS'smtplib'
p3016
I1349
sS'string_concat'
p3017
I7285
sS'media_url'
p3018
I686
sS'jsonencoder'
p3019
I3167
sS'as_hidden'
p3020
I3997
sS'hide_empty'
p3021
I2228
sS'mersenne'
p3022
I5778
sS'__file__'
p3023
I2461
sS'flup_module'
p3024
I3360
sS'xgettext_options'
p3025
I2334
sS'utcoffset'
p3026
I5894
sS"'a+"
p3027
I5822
sS'during'
p3028
I2043
sS"'silent"
p3029
I5350
sS'loopvars'
p3030
I5255
sS'write_migration_files'
p3031
I2514
sS'trim_to_apps'
p3032
I2515
sS'template_dir'
p3033
I2986
sS"'__pycache__"
p3034
I2992
sS'_get_size'
p3035
I751
sS'do_ntranslate'
p3036
I7359
sS'_separator'
p3037
I4583
sS'_chunk_size'
p3038
I4508
sS'x'
I431
sS'failfast'
p3039
I2860
sS'initial_data'
p3040
I2047
sS'locale'
p3041
I1821
sS'datetimeinput'
p3042
I3731
sS'use_threading'
p3043
I2900
sS"'reversed"
p3044
I5365
sS'close'
p3045
I73
sS'0xffff0000'
p3046
I852
sS"'june"
p3047
I5958
sS'extension_map'
p3048
I5582
sS'management_dir'
p3049
I1522
sS"'default"
p3050
I42
sS'probably'
p3051
I3002
sS'commands_dict'
p3052
I1560
sS"'warnings"
p3053
I1726
sS'missing'
p3054
I3251
sS'dotted_path'
p3055
I6709
sS'allowed_hosts'
p3056
I2687
sS'both'
p3057
I1661
sS"'auto_id"
p3058
I4047
sS'+03d'
p3059
I6156
sS'no-wrap'
p3060
I2403
sS"'errno"
p3061
I893
sS'is_rendered'
p3062
I5510
sS'handle_template'
p3063
I2987
sS'header'
p3064
I1242
sS"'python"
p3065
I2503
sS'projectstate'
p3066
I2478
sS'char2number'
p3067
I7139
sS'stamp'
p3068
I7215
sS'get_standard_processors'
p3069
I5114
sS'/label'
p3070
I4008
sS"'signals"
p3071
I637
sS'skip_validation'
p3072
I2635
sS'as_string'
p3073
I1443
sS"'loop"
p3074
I4782
sS'empty'
p3075
I958
sS'proxydigestauthhandler'
p3076
I6919
sS'prefix_length'
p3077
I2988
sS'regroup'
p3078
I5390
sS'else'
p3079
I87
sS'get_default_timezone_name'
p3080
I7223
sS'get_response'
p3081
I1109
sS'unboundlocalerror'
p3082
I6429
sS'imap'
p3083
I6813
sS'item_copyright'
p3084
I6192
sS'look'
p3085
I2089
sS"'egg"
p3086
I5491
sS'copystat'
p3087
I859
sS"'unlock"
p3088
I803
sS'while'
p3089
I759
sS'get_format_lazy'
p3090
I3822
sS'mime_type'
p3091
I6212
sS'quoted_url'
p3092
I6511
sS'rendercontext'
p3093
I5108
sS'lru_cache'
p3094
I1520
sS'loop'
p3095
I5277
sS'pack'
p3096
I5808
sS'filesystemstorage'
p3097
I936
sS"'april"
p3098
I5957
sS'unicode_literals'
p3099
I126
sS'_state'
p3100
I4162
sS'int_part'
p3101
I6741
sS'ready'
p3102
I7345
sS"'use_default_ignore_patterns"
p3103
I2397
sS"'host"
p3104
I3337
sS'queue'
p3105
I6838
sS'many_to_many'
p3106
I2031
sS'set_completer'
p3107
I2760
sS"'_client"
p3108
I425
sS'urlconf_name'
p3109
I3481
sS'_construct_form'
p3110
I4046
sS'conflict'
p3111
I2197
sS'bom'
p3112
I1863
sS'used'
p3113
I176
sS'temporary'
p3114
I3006
sS'over_chunk'
p3115
I4528
sS'_unget_history'
p3116
I4541
sS'cleaning'
p3117
I3005
sS'__add__'
p3118
I4326
sS'tkinter_tkfiledialog'
p3119
I6865
sS'moreargs'
p3120
I6286
sS'vary_headers'
p3121
I5743
sS'sha1'
p3122
I5484
sS'database'
p3123
I1887
sS'randint'
p3124
I1412
sS'must_be_first'
p3125
I4964
sS'lang_info'
p3126
I7287
sS'translator-targeted'
p3127
I7403
sS'full_path'
p3128
I945
sS'_upload_handlers'
p3129
I4511
sS'feed_copyright'
p3130
I6170
sS'morsel'
p3131
I4477
sS'__path__'
p3132
I1534
sS'host_validation_re'
p3133
I4600
sS"'django-admin"
p3134
I2090
sS"'-clear"
p3135
I4362
sS'password'
p3136
I1288
sS'$'
I2307
sS'runtimewarning'
p3137
I692
sS'glob-style'
p3138
I2394
sS'_url_drive_re'
p3139
I2960
sS'error_list'
p3140
I716
sS'remaining'
p3141
I1167
sS'create_parser'
p3142
I1541
sS"'deprecated"
p3143
I2904
sS'close_called'
p3144
I982
sS'eaddrinuse'
p3145
I2717
sS'compare_digest'
p3146
I5787
sS"'httprequest"
p3147
I4448
sS'tkinter_font'
p3148
I6867
sS'manifest'
p3149
I2621
sS'timesince_filter'
p3150
I5213
sS'formsets'
p3151
I3652
sS'translated'
p3152
I7275
sS'xmlrpc_client'
p3153
I6879
sS'autoreload'
p3154
I2657
sS'httpresponsebase'
p3155
I4787
sS"'fake"
p3156
I2568
sS'creation'
p3157
I2626
sS'some'
p3158
I509
sS'tkinter_constants'
p3159
I6853
sS"'_id"
p3160
I2178
sS'want_unicode'
p3161
I7000
sS'exec'
p3162
I2767
sS'pathsep'
p3163
I3061
sS'filesize_number_format'
p3164
I5220
sS'dictconfigurator'
p3165
I6079
sS'slash'
p3166
I6632
sS'modelform_factory'
p3167
I4168
sS'minimal'
p3168
I1678
sS'cgi'
p3169
I1152
sS'id_'
p3170
I3706
sS'run'
p3171
I1842
sS"'httpresponsenotfound"
p3172
I4460
sS'processing'
p3173
I2436
sS'max_entries'
p3174
I148
sS'step'
p3175
I3817
sS'new_value'
p3176
I200
sS"'endblock"
p3177
I5463
sS'idx'
p3178
I4001
sS"'dklen"
p3179
I5800
sS"'surrogateescape"
p3180
I1460
sS'exc_info'
p3181
I1108
sS'block'
p3182
I4966
sS'end_text_pos'
p3183
I7130
sS'old_method_name'
p3184
I6029
sS'module_six_moves_urllib_parse'
p3185
I6885
sS'advance_iterator'
p3186
I6966
sS'behaving'
p3187
I533
sS'connector'
p3188
I7414
sS'merge_migrations'
p3189
I2533
sS'_cached_filenames'
p3190
I5618
sS'sql_files'
p3191
I2941
sS'is_checked'
p3192
I4402
sS'_cached_loaders'
p3193
I5482
sS'0-4'
p3194
I3617
sS'validate_number'
p3195
I3079
sS'databasecache'
p3196
I263
sS'__y2'
p3197
I6502
sS'0-1'
p3198
I3619
sS'registered'
p3199
I652
sS'current_uri'
p3200
I4623
sS'0-9'
p3201
I6612
sS"'unreadableposterror"
p3202
I4451
sS"'app"
p3203
I2563
sS"'apr"
p3204
I5968
sS'properly'
p3205
I1568
sS'newer'
p3206
I1837
sS"'initial-"
p3207
I3935
sS'inverse_match'
p3208
I3561
sS'visible_issue_count'
p3209
I1720
sS'check_programs'
p3210
I2311
sS'info'
p3211
I465
sS'utc'
p3212
I4806
sS'middleware'
p3213
I504
sS"'datefield"
p3214
I3737
sS'argtypes'
p3215
I846
sS'`dict'
p3216
I5827
sS'ordered'
p3217
I4186
sS'_get_media'
p3218
I4428
sS'readlines'
p3219
I1055
sS'body_msg'
p3220
I1489
sS'one_percent_re'
p3221
I7388
sS"'cyan"
p3222
I7049
sS'is_parameter_entity'
p3223
I3274
sS'tkdnd'
p3224
I6857
sS"'resent-cc"
p3225
I1427
sS'nan'
p3226
I5156
sS'application'
p3227
I1741
sS'code_changed'
p3228
I5652
sS'resolved_args'
p3229
I5059
sS'run_syncdb'
p3230
I2577
sS'coded_value'
p3231
I4484
sS'_len'
p3232
I6699
sS'current_chunk'
p3233
I889
sS'form_class'
p3234
I4260
sS'eval'
p3235
I5299
sS'|\\n'
p3236
I6591
sS'structure'
p3237
I814
sS'no-startup'
p3238
I2736
sS'e'
I80
sS'required'
p3239
I2780
sS'normpath'
p3240
I962
sS'non-model'
p3241
I3226
sS'requires'
p3242
I2647
sS'gt'
p3243
I6356
sS'namemap'
p3244
I5471
sS'resultclass'
p3245
I6299
sS'gz'
p3246
I5600
sS'cmp_fmts'
p3247
I2271
sS"'localized_fields"
p3248
I4139
sS'gb'
p3249
I5224
sS'go'
p3250
I4544
sS'virtual_fields'
p3251
I4114
sS'excludes'
p3252
I1993
sS'offset_mins'
p3253
I5939
sS'xmlgenerator'
p3254
I7446
sS'suite'
p3255
I2863
sS'deprecation'
p3256
I26
sS'rollback'
p3257
I4565
sS'use_grouping'
p3258
I6739
sS"'as"
p3259
I5046
sS"'data"
p3260
I4050
sS'tararchive'
p3261
I5588
sS'underscore'
p3262
I3021
sS'language_session_key'
p3263
I7257
sS'work_file'
p3264
I2324
sS'view_func'
p3265
I3458
sS'migrationautodetector'
p3266
I2474
sS'globalpath'
p3267
I7362
sS'slots_var'
p3268
I7012
sS"'reset_sequences"
p3269
I2068
sS'tksimpledialog'
p3270
I6874
sS'var_arg'
p3271
I4999
sS'label_from_instance'
p3272
I4248
sS'__copy__'
p3273
I4655
sS'inspection'
p3274
I2109
sS'z|'
p3275
I5932
sS'download'
p3276
I3014
sS'remaining_bits'
p3277
I5407
sS'available_attrs'
p3278
I6014
sS"'http404"
p3279
I4464
sS'\\n\\nyou'
p3280
I2356
sS'_callback_strs'
p3281
I3487
sS"'jsonresponse"
p3282
I4466
sS'strsq'
p3283
I4985
sS'same_origin'
p3284
I6540
sS';'
I177
sS'pidfile'
p3285
I3390
sS'declared_fields'
p3286
I3917
sS'handle_noargs'
p3287
I1768
sS'badserializer'
p3288
I3113
sS'pyinotify'
p3289
I5607
sS're-run'
p3290
I2603
sS'ip_str'
p3291
I6556
sS'_validate_unique'
p3292
I4153
sS'convert'
p3293
I5710
sS'copyright'
p3294
I6228
sS'format_subject'
p3295
I6669
sS"'ugettext_lazy"
p3296
I7246
sS"'40"
p3297
I4375
sS"'uploadedfile"
p3298
I989
sS"'invalid_date"
p3299
I3890
sS'examining'
p3300
I2388
sS'manage'
p3301
I2504
sS'field_node'
p3302
I3249
sS'frame'
p3303
I6995
sS'outbox'
p3304
I1348
sS"'atomic_requests"
p3305
I1097
sS"'sql_table"
p3306
I7078
sS"'sign"
p3307
I5708
sS'context_re'
p3308
I7374
sS'end_index'
p3309
I3105
sS"'parse"
p3310
I6943
sS'optimizing'
p3311
I2811
sS'started'
p3312
I2186
sS'palettes'
p3313
I1785
sS'decimalexception'
p3314
I3716
sS'do_if'
p3315
I5378
sS'chdir'
p3316
I5820
sS'taglib_module'
p3317
I5089
sS'redirect_to'
p3318
I4832
sS'unregister_serializer'
p3319
I3122
sS"'block_context"
p3320
I5441
sS'absolute_http_url_re'
p3321
I4598
sS"'formfield_callback"
p3322
I4134
sS'escaper'
p3323
I5198
sS'template_name'
p3324
I5413
sS'winreg'
p3325
I6883
sS'escaped'
p3326
I3670
sS"'unicode_escape"
p3327
I6537
sS'namespace_list'
p3328
I3504
sS'_parse_header'
p3329
I4579
sS'make_aware'
p3330
I4275
sS'lpoverlapped'
p3331
I842
sS'located'
p3332
I5560
sS'represent_decimal'
p3333
I3204
sS'none_model_fields'
p3334
I4150
sS'appendlist'
p3335
I3501
sS'circular'
p3336
I3516
sS'check_constraints'
p3337
I2247
sS'allow_empty_file'
p3338
I3843
sS"'textarea"
p3339
I4299
sS"'endspaceless"
p3340
I5396
sS'appregistrynotready'
p3341
I693
sS"'invalid_pk_value"
p3342
I4256
sS'dictsortreversed'
p3343
I5194
sS'_import_module'
p3344
I6791
sS"'_callback_str"
p3345
I3479
sS'header_end'
p3346
I4577
sS'validate_host'
p3347
I4613
sS'item_type'
p3348
I4517
sS'wordwrap'
p3349
I5181
sS'primary_keys'
p3350
I2000
sS'unique_id'
p3351
I6189
sS'02d'
p3352
I5885
sS'contextpopexception'
p3353
I4862
sS'including'
p3354
I1978
sS"'abcdefghijklmnopqrstuvwxyz"
p3355
I4908
sS'pending_references'
p3356
I2616
sS'urlnode'
p3357
I5326
sS'cull_frequency'
p3358
I151
sS"'obj"
p3359
I598
sS'modelsignal'
p3360
I618
sS's_iwrite'
p3361
I5566
sS'_payload'
p3362
I1459
sS"'order"
p3363
I4027
sS'auth'
p3364
I572
sS'emailvalidator'
p3365
I3583
sS'iterkeys'
p3366
I5834
sS"'use_tz"
p3367
I5086
sS'__text_cast'
p3368
I6306
sS'base16'
p3369
I5714
sS'nameerror'
p3370
I2769
sS'_current'
p3371
I3160
sS'|'
I885
sS'msgattrib_options'
p3372
I2363
sS'attachments'
p3373
I1474
sS'inputs'
p3374
I4347
sS'chunk'
p3375
I763
sS'getlist'
p3376
I3499
sS'parse_and_bind'
p3377
I2763
sS's_opt'
p3378
I1601
sS'exctype'
p3379
I5563
sS'check_for_whole_start_tag'
p3380
I6466
sS'_default'
p3381
I5629
sS'cause'
p3382
I210
sS'installed_apps'
p3383
I1570
sS'systemrandom'
p3384
I5774
sS'ancestry'
p3385
I2536
sS"'error_messages"
p3386
I3829
sS'_convert_to_charset'
p3387
I4795
sS'saved_forms'
p3388
I4190
sS'force_grouping'
p3389
I6272
sS'value_not_found_exception'
p3390
I416
sS"'invalid"
p3391
I3560
sS'deprecated'
p3392
I64
sS'keep'
p3393
I2413
sS'has_error'
p3394
I3981
sS'modelname'
p3395
I1949
sS'unsupported'
p3396
I5064
sS"'datetimefield"
p3397
I3739
sS'new_class'
p3398
I3922
sS'firstof'
p3399
I5361
sS'management'
p3400
I1513
sS'dump'
p3401
I1961
sS'mkdir'
p3402
I2525
sS'relations'
p3403
I2139
sS'attach'
p3404
I1484
sS'fill_to'
p3405
I6575
sS'widgets'
p3406
I3653
sS'pathext'
p3407
I3060
sS'final'
p3408
I5334
sS'_ipython_pre_011'
p3409
I2744
sS'configure'
p3410
I580
sS'deconstruct'
p3411
I905
sS'exactly'
p3412
I5339
sS'lists'
p3413
I4646
sS'updating'
p3414
I4149
sS'template_localtime'
p3415
I4901
sS"'temporary_class"
p3416
I7005
sS'list_'
p3417
I4658
sS's|'
p3418
I4910
sS'templatedoesnotexist'
p3419
I4864
sS'submitted'
p3420
I3836
sS'no-obsolete'
p3421
I2364
sS'to_digits'
p3422
I5712
sS'behaviors'
p3423
I453
sS'pot_path'
p3424
I2442
sS'tabs'
p3425
I5206
sS'py2'
p3426
I1247
sS'py3'
p3427
I305
sS'verbatimnode'
p3428
I5328
sS's\\n\\n'
p3429
I1664
sS'need'
p3430
I3353
sS'reraise'
p3431
I1150
sS'lazy_property'
p3432
I6332
sS'extra_attrs'
p3433
I3768
sS'make_msgid'
p3434
I1257
sS"'password"
p3435
I4345
sS'able'
p3436
I2092
sS'instance'
p3437
I626
sS"*'|"
p3438
I2928
sS'_archive_cls'
p3439
I5579
sS'expires'
p3440
I271
sS'connected'
p3441
I628
sS'but'
p3442
I1331
sS'pyo'
p3443
I2993
sS'pyc'
p3444
I2402
sS'utcdate'
p3445
I1408
sS"'selectdatewidget"
p3446
I3656
sS'_headers'
p3447
I4789
sS'url'
p3448
I932
sS'setlevel'
p3449
I6087
sS"'list_tags"
p3450
I1798
sS'uri'
p3451
I6247
sS'naiveip_re'
p3452
I2658
sS'databases'
p3453
I2270
sS'_curried_func'
p3454
I6284
sS'movedattribute'
p3455
I6801
sS'file_dict'
p3456
I1013
sS'block_tag_start'
p3457
I4844
sS'render_context'
p3458
I4918
sS'app_name'
p3459
I1528
sS'checkbox_name'
p3460
I4369
sS'\\1'
p3461
I2930
sS'process_clob'
p3462
I282
sS'pillowimagefile'
p3463
I790
sS'cdata_content_elements'
p3464
I6477
sS'eacces'
p3465
I2716
sS'in_attrib'
p3466
I5644
sS'cache_timeout'
p3467
I5733
sS'list_length'
p3468
I5207
sS'importlib'
p3469
I1511
sS'('
I17
sS'get_attname'
p3470
I3184
sS'join_tokens'
p3471
I7394
sS'_wrapper'
p3472
I6009
sS'bases'
p3473
I3911
sS'message_context'
p3474
I5028
sS'get_field'
p3475
I3193
sS'extra_context'
p3476
I5338
sS'achieve'
p3477
I2050
sS'0o700'
p3478
I376
sS'count'
p3479
I289
sS"'autofield"
p3480
I2161
sS'backend_name'
p3481
I2940
sS'120'
p3482
I5898
sS'c_ulong'
p3483
I811
sS'127'
p3484
I221
sS'parser_class'
p3485
I4923
sS'cstringio'
p3486
I6807
sS'httperror'
p3487
I6897
sS'max_value_expr'
p3488
I5402
sS'_enter'
p3489
I5
sS'base2'
p3490
I5713
sS'processed'
p3491
I4634
sS'contain'
p3492
I1432
sS'__html__'
p3493
I6416
sS"'september"
p3494
I5961
sS'legacy'
p3495
I1757
sS'stats'
p3496
I6697
sS'fragment_name'
p3497
I459
sS'final_path'
p3498
I5558
sS'input_type'
p3499
I4334
sS"'november"
p3500
I5963
sS'find_filter'
p3501
I4969
sS'state'
p3502
I2053
sS'__bases__'
p3503
I7013
sS'correctly'
p3504
I2088
sS'_get_pk_val'
p3505
I3180
sS'python_2_unicode_compatible'
p3506
I583
sS"'attachment"
p3507
I1500
sS'django\\n'
p3508
I3352
sS'key'
p3509
I118
sS'hits'
p3510
I3091
sS'admin'
p3511
I641
sS'formfield'
p3512
I4133
sS"'currently"
p3513
I2225
sS'convert_charrefs'
p3514
I6452
sS'date_field'
p3515
I4212
sS'regexurlpattern'
p3516
I3474
sS"'cacheentry"
p3517
I249
sS'add_truncation_text'
p3518
I7111
sS'subtitle'
p3519
I6167
sS'get_digit'
p3520
I5211
sS'noreload'
p3521
I2683
sS"'february"
p3522
I5955
sS'orig'
p3523
I4244
sS'quit'
p3524
I1378
sS'username'
p3525
I1287
sS'optionally'
p3526
I2825
sS"'zh-tw"
p3527
I7317
sS'_get_name'
p3528
I997
sS'capturewarnings'
p3529
I6658
sS'_html_output'
p3530
I3936
sS'superusers'
p3531
I2843
sS'file_upload_handlers'
p3532
I4633
sS'message_dict'
p3533
I717
sS'endblock'
p3534
I5464
sS'get_current_timezone'
p3535
I4274
sS'xrange'
p3536
I4013
sS"'get_language"
p3537
I7234
sS'fetchone'
p3538
I274
sS'standarderror'
p3539
I6088
sS'/a'
p3540
I4360
sS'convert_pattern'
p3541
I6051
sS'parts'
p3542
I2288
sS'hasattribute'
p3543
I3247
sS'/p'
p3544
I3972
sS'1-9'
p3545
I6620
sS'as_form'
p3546
I5349
sS'workdir'
p3547
I3389
sS'http'
p3548
I454
sS'version_info'
p3549
I1455
sS'pk_value'
p3550
I4224
sS'httpresponseredirectbase'
p3551
I4830
sS'dark_palette'
p3552
I7070
sS'meta_data'
p3553
I4518
sS'assertregex'
p3554
I7019
sS'use_workaround'
p3555
I6451
sS'fixture_dir'
p3556
I2255
sS'transaction'
p3557
I237
sS'base_name'
p3558
I2975
sS'i'
I402
sS"'zh-cn"
p3559
I7315
sS'pk_field'
p3560
I4183
sS'rawdata'
p3561
I4480
sS"'network"
p3562
I4786
sS'get_git_changeset'
p3563
I7431
sS'attach_file'
p3564
I1487
sS'new-test-runner'
p3565
I541
sS'_reset_dicts'
p3566
I5107
sS"'feed_copyright"
p3567
I6184
sS'tkfont'
p3568
I6868
sS'modelchoicefield'
p3569
I4225
sS'tgz'
p3570
I5601
sS'extends'
p3571
I5451
sS'lookup'
p3572
I1188
sS'logger'
p3573
I1065
sS'changed_data'
p3574
I3988
sS'filepathfield'
p3575
I3884
sS'got_request_exception'
p3576
I1105
sS'url2pathname'
p3577
I6905
sS'restart_with_reloader'
p3578
I5675
sS'localeregexprovider'
p3579
I3466
sS"'no_optimize"
p3580
I2798
sS'r\\n'
p3581
I2711
sS'entitydeclhandler'
p3582
I3283
sS"'sql_coltype"
p3583
I7076
sS'_get_num_pages'
p3584
I3090
sS'escape_html'
p3585
I4266
sS'04d'
p3586
I6001
sS'library'
p3587
I415
sS'incr_version'
p3588
I226
sS"'you"
p3589
I1929
sS'updateddate'
p3590
I6193
sS'a-z'
p3591
I2959
sS'04x'
p3592
I6414
sS'urlize'
p3593
I5133
sS"'number"
p3594
I4341
sS"'error_msg"
p3595
I2269
sS"'accept_language"
p3596
I5765
sS"'managers"
p3597
I501
sS'\\nmeta'
p3598
I4673
sS'new_msg'
p3599
I2084
sS'?'
I601
sS'author_link'
p3600
I6166
sS'base36'
p3601
I5715
sS'prohibited'
p3602
I4148
sS'offset'
p3603
I5893
sS"'tuesday"
p3604
I5941
sS'next_space_index'
p3605
I4977
sS'create_nodelist'
p3606
I4944
sS'process_template_response'
p3607
I1087
sS'mem_args'
p3608
I6290
sS'transfer_encoding'
p3609
I4522
sS'recognized'
p3610
I5580
sS"'fileuploadhandler"
p3611
I1020
sS"'loader"
p3612
I5431
sS"'white"
p3613
I7050
sS'file_field_list'
p3614
I4106
sS'use_natural_keys'
p3615
I1996
sS"'protocol"
p3616
I3335
sS"'min_length"
p3617
I3649
sS'new_key'
p3618
I165
sS'utility'
p3619
I1628
sS"'server_name"
p3620
I4606
sS'inner'
p3621
I647
sS'input_data'
p3622
I1036
sS"r'^\\w"
p3623
I6506
sS'_get_choices'
p3624
I3860
sS'\\nnote'
p3625
I2896
sS'key_salt'
p3626
I5780
sS'nodetype'
p3627
I3261
sS'converter'
p3628
I2619
sS'`managed'
p3629
I2128
sS"'0123456789abcdefghijklmnopqrstuvwxyz"
p3630
I5700
sS"'extends"
p3631
I5453
sS'converted'
p3632
I5210
sS'limit'
p3633
I1165
sS'val_expr'
p3634
I5330
sS'numberinput'
p3635
I3721
sS'referencelocaltimezone'
p3636
I7207
sS'signer'
p3637
I3410
sS'field_value'
p3638
I3192
sS'piece'
p3639
I5872
sS'display'
p3640
I5374
sS"'msgmerge"
p3641
I2432
sS'fetch_command'
p3642
I1569
sS'author_name'
p3643
I6165
sS"'post_create_sql"
p3644
I2938
sS'contextlib'
p3645
I7026
sS'get_library'
p3646
I4885
sS'functions'
p3647
I651
sS'start_ipython'
p3648
I2754
sS'configure_handler'
p3649
I6104
sS'format_string'
p3650
I5313
sS"'display"
p3651
I1935
sS'withnode'
p3652
I5337
sS'create_table'
p3653
I1893
sS"'show_value"
p3654
I3640
sS"'friday"
p3655
I5944
sS'stat'
p3656
I860
sS"'clear_checkbox_label"
p3657
I4367
sS"'fri"
p3658
I5950
sS"'string_concat"
p3659
I7241
sS'simpledialog'
p3660
I6848
sS'urlinput'
p3661
I3723
sS'8000'
p3662
I2671
sS"'ascii"
p3663
I1434
sS'bcc'
p3664
I1473
sS'portion'
p3665
I6757
sS'extras'
p3666
I3654
sS'fieldname'
p3667
I3975
sS'klass'
p3668
I1278
sS'inner_result'
p3669
I6768
sS"'natural"
p3670
I3257
sS"'comp_words"
p3671
I1578
sS'content_length'
p3672
I1034
sS"'created"
p3673
I4165
sS'msgs'
p3674
I2340
sS"'size"
p3675
I740
sS'in_delete'
p3676
I5643
sS'getlogger'
p3677
I1066
sS'start_element'
p3678
I3241
sS"'creates"
p3679
I2368
sS'findall'
p3680
I6536
sS'onetoonefield'
p3681
I4220
sS"'1_6"
p3682
I546
sS'aug'
p3683
I6494
sS'safetext'
p3684
I6779
sS'contained'
p3685
I2185
sS'imagefile'
p3686
I779
sS'choice_label'
p3687
I4400
sS'reset_cache'
p3688
I7320
sS"'classtype"
p3689
I6076
sS'sha256'
p3690
I5785
sS"'alt"
p3691
I5979
sS'p2'
p3692
I6544
sS'updated'
p3693
I6246
sS'void'
p3694
I6605
sS'date_keys'
p3695
I6209
sS'_get_page'
p3696
I3088
sS'p1'
p3697
I6543
sS'updates'
p3698
I2352
sS'namespaces'
p3699
I3440
sS"'all"
p3700
I1934
sS"'wsgiserver"
p3701
I3297
sS'old_file_name'
p3702
I877
sS'\\x04'
p3703
I7297
sS"'_setupfunc"
p3704
I6329
sS'urlunparse'
p3705
I6891
sS'use_ssl'
p3706
I1354
sS'implemented'
p3707
I4767
sS'make_origin'
p3708
I5418
sS'new_keys'
p3709
I430
sS'domain_whitelist'
p3710
I3597
sS'clear_checkbox_name'
p3711
I4361
sS'neg'
p3712
I5709
sS'http_cookiejar'
p3713
I6824
sS'reverse_dict'
p3714
I3497
sS'new'
p3715
I516
sS'varkw'
p3716
I5023
sS'table2model'
p3717
I2114
sS'urlerror'
p3718
I6895
sS"'get_default_timezone_name"
p3719
I7193
sS'_lib'
p3720
I421
sS'mediadefiningclass'
p3721
I3901
sS'get_autocommit'
p3722
I2231
sS'default_key_func'
p3723
I132
sS'gettempdir'
p3724
I987
sS"'defaults"
p3725
I1962
sS'102'
p3726
I4681
sS'constant_time_compare'
p3727
I3396
sS'100'
p3728
I4676
sS'101'
p3729
I4678
sS'i18n_modified'
p3730
I5612
sS'is_accept_language_redundant'
p3731
I5764
sS'text/css'
p3732
I4321
sS'consoleemailbackend'
p3733
I1321
sS'userlist'
p3734
I4261
sS"'queryset"
p3735
I4154
sS'num_args'
p3736
I6289
sS'available_shells'
p3737
I2757
sS'close_connection'
p3738
I2917
sS'serialize'
p3739
I2021
sS'sublist_item'
p3740
I5208
sS"'jun"
p3741
I5969
sS"'__name__"
p3742
I3441
sS"'mon"
p3743
I5947
sS'_delegate_bytes'
p3744
I6304
sS'use_reloader'
p3745
I2700
sS'call'
p3746
I3525
sS'add_help'
p3747
I1612
sS'type'
p3748
I736
sS'tell'
p3749
I745
sS'fastcgi'
p3750
I1590
sS'classonlymethod'
p3751
I6005
sS'_save'
p3752
I916
sS'quit_command'
p3753
I2704
sS'warn'
p3754
I62
sS'__iter__'
p3755
I719
sS'count2'
p3756
I7187
sS'len_item'
p3757
I5276
sS'text/javascript'
p3758
I4316
sS'rights'
p3759
I6249
sS'setup'
p3760
I1623
sS'_varlist'
p3761
I5285
sS"'typedmultiplechoicefield"
p3762
I3756
sS'exceptions'
p3763
I23
sS'root'
p3764
I2443
sS'choice_cache'
p3765
I4247
sS'initial_form_count'
p3766
I4020
sS'nofollow'
p3767
I5177
sS'set_urlconf'
p3768
I1112
sS'unichr'
p3769
I6979
sS'unsign'
p3770
I3423
sS'inotifywrapper'
p3771
I5608
sS'feed_url'
p3772
I6169
sS'quot'
p3773
I6397
sS'_set_post'
p3774
I1218
sS"'testrunner"
p3775
I2865
sS'answer'
p3776
I2807
sS'config'
p3777
I104
sS"'false"
p3778
I3381
sS'loggers'
p3779
I6089
sS'sql_destroy_indexes'
p3780
I2779
sS'_choices'
p3781
I3859
sS'timedelta'
p3782
I4807
sS"'deactivate_all"
p3783
I7233
sS'old_method'
p3784
I6036
sS's\\s*'
p3785
I4995
sS's\\npath'
p3786
I4669
sS'fixture_labels'
p3787
I2226
sS'mimetype'
p3788
I1486
sS'ignorenonexistent'
p3789
I2221
sS'app_migrations'
p3790
I2518
sS'_win'
p3791
I5614
sS'with_traceback'
p3792
I6991
sS"'leave_locale_alone"
p3793
I1706
sS'model_name'
p3794
I248
sS'operations'
p3795
I2522
sS"'use_threading"
p3796
I2682
sS'compare_ordering_key'
p3797
I4068
sS'get_cookie_signer'
p3798
I3408
sS'_js'
p3799
I4312
sS'saving'
p3800
I1327
sS'decr'
p3801
I201
sS'before'
p3802
I2888
sS"'filename"
p3803
I1014
sS','
I19
sS"'red"
p3804
I7044
sS"'reg"
p3805
I6607
sS'_get_context_stack_frame'
p3806
I5287
sS'weeks'
p3807
I7181
sS'combination'
p3808
I3377
sS"'infos"
p3809
I1727
sS'silenced_system_checks'
p3810
I610
sS'decorator'
p3811
I5554
sS'instanceof'
p3812
I6601
sS'get_renderer'
p3813
I4420
sS'module_loading'
p3814
I28
sS"'nodelist_true"
p3815
I5280
sS"'ok"
p3816
I4683
sS'remove_move'
p3817
I6947
sS"'or"
p3818
I2693
sS'create_var'
p3819
I5377
sS'st_atime'
p3820
I868
sS'msgmerge\\n'
p3821
I2456
sS'assignmentnode'
p3822
I5073
sS'extract'
p3823
I3015
sS'enclosure'
p3824
I6191
sS'unbound'
p3825
I6968
sS'content'
p3826
I776
sS'reader'
p3827
I398
sS'index_pattern'
p3828
I6056
sS"'extend"
p3829
I4332
sS'utf8_charset'
p3830
I1403
sS'247'
p3831
I3595
sS'243'
p3832
I5902
sS"'require_all_fields"
p3833
I3880
sS'infix'
p3834
I5521
sS'handle_label'
p3835
I1763
sS'logging'
p3836
I1061
sS'starts'
p3837
I2672
sS'messages'
p3838
I462
sS'can_read'
p3839
I7029
sS'100000'
p3840
I1414
sS'signature'
p3841
I3424
sS'user'
p3842
I2059
sS'_module'
p3843
I6797
sS'features'
p3844
I276
sS'media_root'
p3845
I940
sS'dig1'
p3846
I5810
sS'dig2'
p3847
I5811
sS'hook'
p3848
I6735
sS'06d'
p3849
I5892
sS'enumerate'
p3850
I403
sS"b'django"
p3851
I3413
sS'payload'
p3852
I1457
sS'nodelist_true_output'
p3853
I5288
sS'_add_installed_apps_translations'
p3854
I7331
sS'format_module_path'
p3855
I6263
sS'twister'
p3856
I5779
sS'lock_un'
p3857
I856
sS'tokens'
p3858
I4939
sS"'criticals"
p3859
I1725
sS'terminal_char'
p3860
I6758
sS'urlunquote_plus'
p3861
I6512
sS'begins'
p3862
I3019
sS'app_configs'
p3863
I494
sS'keyword'
p3864
I2102
sS'deletion_field_name'
p3865
I4028
sS'a-za-z0-9-'
p3866
I2668
sS"'payment"
p3867
I4721
sS'extracting'
p3868
I3041
sS'_check_middleware_classes'
p3869
I564
sS'seed'
p3870
I5784
sS'cycle_iter'
p3871
I5246
sS'seek'
p3872
I746
sS'find_module'
p3873
I6732
sS'subwidget'
p3874
I3999
sS"'expects_localtime"
p3875
I5016
sS'__getstate__'
p3876
I4798
sS'http_not_modified'
p3877
I3320
sS"'cull_frequency"
p3878
I152
sS'stacklevel'
p3879
I68
sS'newline'
p3880
I7001
sS'regular'
p3881
I3472
sS"'incomplete"
p3882
I3878
sS"'fields"
p3883
I3162
sS'dom'
p3884
I3214
sS'_stream'
p3885
I1192
sS'doc'
p3886
I6335
sS'm'
I435
sS"'convert_to_local_time"
p3887
I7228
sS'param_dict'
p3888
I1102
sS'doy'
p3889
I5925
sS"'process_response"
p3890
I1088
sS'parse_datetime'
p3891
I5938
sS'dow'
p3892
I6152
sS'dot'
p3893
I3464
sS'checkboxchoiceinput'
p3894
I4405
sS"'en-us"
p3895
I1709
sS"'delete"
p3896
I320
sS'whitelist'
p3897
I3599
sS'command_stack'
p3898
I5120
sS'ending'
p3899
I1646
sS'removehandler'
p3900
I2882
sS'has_key'
p3901
I196
sS'loaddata'
p3902
I2230
sS'dirpath'
p3903
I1856
sS'basecache'
p3904
I21
sS'end_transaction_sql'
p3905
I1716
sS'url_fields'
p3906
I3853
sS'timezone-aware'
p3907
I3176
sS'__enter__'
p3908
I768
sS"'runfcgi"
p3909
I1588
sS'__call__'
p3910
I1124
sS'11'
p3911
I5876
sS'enter_command'
p3912
I4955
sS'stop'
p3913
I2862
sS"'ungettext"
p3914
I7250
sS"'ftp"
p3915
I2964
sS"'pointer"
p3916
I836
sS'stopupload'
p3917
I1026
sS'__promise__'
p3918
I6303
sS"'0123456789abcdefghijklmnopqrstuvwxyzabcdefghijklmnopqrstuvwxyz"
p3919
I5702
sS'bat'
p3920
I3065
sS'bar'
p3921
I4474
sS'fields'
p3922
I1898
sS'16'
p3923
I5790
sS'reload'
p3924
I4912
sS'bad'
p3925
I6481
sS'b64_decode'
p3926
I3402
sS'no_obsolete'
p3927
I2419
sS'__offset'
p3928
I7205
sS'nodelist_empty'
p3929
I5258
sS'new_context'
p3930
I5082
sS'reference'
p3931
I619
sS"'number_grouping"
p3932
I6274
sS'parent_widget'
p3933
I4333
sS"'year"
p3934
I3672
sS'_out'
p3935
I1647
sS'interboundaryiter'
p3936
I4560
sS'subject'
p3937
I1281
sS'00'
p3938
I7307
sS'__code__'
p3939
I6955
sS'extra_headers'
p3940
I1479
sS'querydict'
p3941
I1212
sS'filename'
p3942
I1485
sS'url1'
p3943
I6541
sS'url2'
p3944
I6542
sS'round_half_up'
p3945
I5129
sS'lazy'
p3946
I630
sS'block_context_key'
p3947
I5440
sS"'any"
p3948
I3800
sS'display_num_errors'
p3949
I1718
sS'_get'
p3950
I4631
sS'questioner'
p3951
I2475
sS'_dimensions_cache'
p3952
I786
sS'writer_leaves'
p3953
I7041
sS'templatecommand'
p3954
I2824
sS'print_exc'
p3955
I2632
sS'hextets'
p3956
I6565
sS'urls'
p3957
I3519
sS'lasttag'
p3958
I6468
sS'avoid_wrapping'
p3959
I5137
sS"'message"
p3960
I714
sS'handle_startendtag'
p3961
I6475
sS'db_for_read'
p3962
I264
sS'loader'
p3963
I2471
sS'formatstr'
p3964
I5870
sS'loaded'
p3965
I3301
sS'new_second_item'
p3966
I5203
sS'movedmodule'
p3967
I6796
sS'three'
p3968
I5405
sS'combofield'
p3969
I3876
sS'digits'
p3970
I3632
sS"'img"
p3971
I7126
sS'39'
p3972
I6398
sS'argument'
p3973
I593
sS'_expire_info'
p3974
I389
sS"'expectation"
p3975
I4748
sS'mcs'
p3976
I3920
sS'autoclobber'
p3977
I2893
sS'exception'
p3978
I694
sS'_func_path'
p3979
I3442
sS'zip_longest'
p3980
I6817
sS'date/time'
p3981
I3825
sS'special_floats'
p3982
I5157
sS'typeof'
p3983
I6604
sS'signatureexpired'
p3984
I3399
sS'cache_key'
p3985
I270
sS'process_view'
p3986
I1085
sS"'combofield"
p3987
I3747
sS"'decimal_places"
p3988
I2209
sS"'may"
p3989
I4279
sS"'max"
p3990
I3795
sS'args_check'
p3991
I5012
sS'ip'
p3992
I2719
sS'is'
p3993
I63
sS'csrftokennode'
p3994
I5239
sS'it'
p3995
I519
sS'kwarg'
p3996
I5051
sS'settingsfile'
p3997
I7342
sS'io'
p3998
I328
sS'in'
p3999
I45
sS'spacelessnode'
p4000
I5314
sS'existing_headers'
p4001
I5744
sS'id'
p4002
I545
sS'if'
p4003
I43
sS"'fixtures"
p4004
I2219
sS'make'
p4005
I1833
sS'filterer'
p4006
I6119
sS'get_function_closure'
p4007
I6974
sS'quant'
p4008
I6765
sS'filtered'
p4009
I1980
sS"'translators"
p4010
I4907
sS'col_name'
p4011
I2173
sS'_html_parser'
p4012
I6449
sS'_explode_shorthand_ip_string'
p4013
I6561
sS'baseemailbackend'
p4014
I1301
sS'parse_http_date'
p4015
I6518
sS"'escape"
p4016
I5358
sS'programs'
p4017
I2312
sS'dns_name'
p4018
I1251
sS"'application/x-www-form-urlencoded"
p4019
I4644
sS'debug_propagate_exceptions'
p4020
I1147
sS'simpletemplateresponse'
p4021
I5494
sS'_resolve'
p4022
I6794
sS'protocol'
p4023
I3626
sS'just'
p4024
I2483
sS'o_excl'
p4025
I888
sS'assigned'
p4026
I6013
sS'__dict__'
p4027
I1545
sS'yes'
p4028
I2848
sS'yet'
p4029
I2599
sS"'missing_management_form"
p4030
I4039
sS'media_types'
p4031
I4308
sS'get_system_encoding'
p4032
I6149
sS'candidate'
p4033
I2036
sS'|^'
p4034
I6372
sS'character'
p4035
I3648
sS'from_apps'
p4036
I2508
sS'datatuple'
p4037
I1292
sS'safeloader'
p4038
I3200
sS'proxybasicauthhandler'
p4039
I6916
sS'app_template_dirs'
p4040
I5476
sS'save'
p4041
I913
sS'empty_form'
p4042
I4055
sS'opt'
p4043
I1608
sS'|2'
p4044
I3616
sS'symlink_path'
p4045
I5571
sS'ops'
p4046
I265
sS'_should_delete_form'
p4047
I4062
sS'_get_count'
p4048
I3089
sS'background'
p4049
I7052
sS'|/'
p4050
I6374
sS'to_python'
p4051
I3189
sS'only_initial'
p4052
I3998
sS'view_name'
p4053
I1123
sS"'upgrade"
p4054
I4759
sS'_offset_union'
p4055
I833
sS'groupdict'
p4056
I3480
sS'endbmatch'
p4057
I7397
sS'old_app_dir'
p4058
I2933
sS'signal'
p4059
I629
sS"'url"
p4060
I4343
sS'realpath'
p4061
I2287
sS'_body'
p4062
I4640
sS'baseloader'
p4063
I5411
sS'pseudo-random'
p4064
I5776
sS'oldroot'
p4065
I6704
sS'attrname'
p4066
I6470
sS'extra_classes'
p4067
I4009
sS'httpresponse'
p4068
I1125
sS'load_initial_data'
p4069
I2572
sS'total'
p4070
I3804
sS'address_family'
p4071
I3308
sS"'save_instance"
p4072
I4096
sS'base_subdir'
p4073
I2977
sS'normal'
p4074
I1679
sS'getcwdu'
p4075
I5557
sS'run_main'
p4076
I5680
sS'nulltranslations'
p4077
I7351
sS"'hiddeninput"
p4078
I4292
sS'docs_version'
p4079
I2982
sS'parse_starttag'
p4080
I6463
sS'block_context'
p4081
I5448
sS'add_argument'
p4082
I1613
sS'date_data'
p4083
I4209
sS'super'
p4084
I340
sS'error_msg'
p4085
I2266
sS'guess_type'
p4086
I1497
sS'maxchildren'
p4087
I3366
sS'pattern_iter'
p4088
I6749
sS'template_fragment_key_template'
p4089
I456
sS"'if"
p4090
I2379
sS"'id"
p4091
I599
sS"'console"
p4092
I6652
sS"'in"
p4093
I1657
sS"'im"
p4094
I4700
sS'add_arguments'
p4095
I1699
sS'file_upload_permissions'
p4096
I943
sS"'tue"
p4097
I5948
sS'managers'
p4098
I1300
sS'_create_mime_attachment'
p4099
I1492
sS"'min_value"
p4100
I3646
sS'parsing'
p4101
I4975
sS'_get_validation_exclusions'
p4102
I4156
sS'splitlines'
p4103
I7110
sS'_createdir'
p4104
I344
sS'contrib'
p4105
I569
sS"'context_data"
p4106
I5497
sS'smart_split'
p4107
I4896
sS'_list_cache_files'
p4108
I371
sS'initial'
p4109
I2063
sS"'get_current_timezone_name"
p4110
I7195
sS'\\d|'
p4111
I3618
sS'needs_autoescape'
p4112
I5167
sS'_cull_frequency'
p4113
I154
sS'fork'
p4114
I5818
sS'cleaned_data'
p4115
I3980
sS'form'
p4116
I3837
sS'get_parent'
p4117
I5452
sS'linenumbers'
p4118
I5168
sS'get_text_list'
p4119
I2298
sS'226'
p4120
I4699
sS'infos'
p4121
I1722
sS'_has_changed'
p4122
I3777
sS"'stderr"
p4123
I1702
sS'commands_only'
p4124
I1551
sS'boundarystream'
p4125
I4584
sS'check_for_migrations'
p4126
I2789
sS'ungettext_lazy'
p4127
I3553
sS'\\d+'
p4128
I2669
sS'delete'
p4129
I190
sS'allowed_schemes'
p4130
I4831
sS'0o022'
p4131
I5817
sS'old_field_name'
p4132
I4515
sS"'specifies"
p4133
I1954
sS'addinfo'
p4134
I6936
sS"'ngettext_lazy"
p4135
I7249
sS'\\s|/'
p4136
I6455
sS'email_use_tls/email_use_ssl'
p4137
I1361
sS'_loaders'
p4138
I5481
sS'getfqdn'
p4139
I1509
sS'_remaining'
p4140
I4540
sS"'forloop"
p4141
I5261
sS'sline'
p4142
I7400
sS'stringio'
p4143
I726
sS'middleware_class'
p4144
I6017
sS"'numberinput"
p4145
I4290
sS"'0000"
p4146
I6576
sS"'django_template_source"
p4147
I5126
sS'__author__'
p4148
I6782
sS'runshell'
p4149
I1928
sS'_offset'
p4150
I829
sS'_samefile'
p4151
I873
sS'template_source_loaders'
p4152
I5410
sS'plural_suffix'
p4153
I5228
sS"'nfc"
p4154
I7115
sS'managed'
p4155
I256
sS'_max_entries'
p4156
I150
sS'manager'
p4157
I1947
sS'get_token'
p4158
I656
sS"'magenta"
p4159
I7048
sS"'make_aware"
p4160
I7202
sS'exit_command'
p4161
I4960
sS'to_bytes'
p4162
I4793
sS'depend'
p4163
I2915
sS'link_next'
p4164
I6703
sS'0'
I161
sS'finally'
p4165
I365
sS"'__ge__"
p4166
I6342
sS'string'
p4167
I3562
sS'build_instance'
p4168
I3149
sS"'noon"
p4169
I5890
sS'__bool__'
p4170
I733
sS'is_secure'
p4171
I4610
sS'datetime'
p4172
I230
sS'hlen'
p4173
I5798
sS"'instead"
p4174
I5829
sS"'ignore"
p4175
I2223
sS'did'
p4176
I650
sS'ipv6'
p4177
I2664
sS'iter'
p4178
I1060
sS'item'
p4179
I4123
sS'tagname'
p4180
I4972
sS'round'
p4181
I5221
sS'dir'
p4182
I339
sS"'server"
p4183
I3361
sS'unexpected'
p4184
I4979
sS'check_events'
p4185
I5649
sS'sysid'
p4186
I3269
sS"'only"
p4187
I2220
sS'targets'
p4188
I2280
sS'adds'
p4189
I5740
sS'addr'
p4190
I1387
sS'multiplechoicefield'
p4191
I3871
sS"'management"
p4192
I1538
sS"'format"
p4193
I1953
sS"'_language"
p4194
I7258
sS'template'
p4195
I2952
sS'sql_create'
p4196
I2771
sS'child_nodelists'
p4197
I5037
sS'lexer_class'
p4198
I4922
sS'deserializedobject'
p4199
I3143
sS'urlopen'
p4200
I6901
sS'_version'
p4201
I6220
sS'__repr__'
p4202
I605
sS'get_internal_type'
p4203
I3230
sS'useful'
p4204
I2415
sS'end_object'
p4205
I3139
sS'class_name'
p4206
I4169
sS'tm_isdst'
p4207
I7217
sS'temporary_file_path'
p4208
I951
sS'_strip_once'
p4209
I6428
sS'saddi'
p4210
I3356
sS'_set_size'
p4211
I754
sS'__bytes__'
p4212
I4794
sS'stylesheet'
p4213
I4322
sS"'handles_files"
p4214
I5640
sS'encode'
p4215
I1248
sS'checkout'
p4216
I1844
sS'setformatter'
p4217
I6129
sS'is_silenced'
p4218
I609
sS'required_css_class'
p4219
I4007
sS'cached_property'
p4220
I407
sS'acceptable'
p4221
I4724
sS'hiddeninput'
p4222
I3724
sS"'resent-sender"
p4223
I1425
sS'rssfeed'
p4224
I6213
sS"'register"
p4225
I485
sS'field_name'
p4226
I1007
sS'cached_loaders'
p4227
I5483
sS'pbkdf2_hmac'
p4228
I5794
sS'__self__'
p4229
I1130
sS'_protected_types'
p4230
I6140
sS'_text_words'
p4231
I7121
sS'querysetpaginator'
p4232
I3095
sS'flo'
p4233
I4559
sS'making'
p4234
I2414
sS'authenticationmiddleware'
p4235
I573
sS'fget'
p4236
I6333
sS'natural_key'
p4237
I2026
sS'_proxy_method'
p4238
I6780
sS'iso_8859_1'
p4239
I1159
sS'sample'
p4240
I373
sS'manytomanyfield'
p4241
I4117
sS"'elif"
p4242
I5379
sS'normalize'
p4243
I3435
sS'urldefrag'
p4244
I6890
sS'charset'
p4245
I995
sS'plist'
p4246
I4586
sS'imports'
p4247
I6554
sS'filter_expr'
p4248
I5250
sS'none_value'
p4249
I3677
sS'map'
p4250
I445
sS'mar'
p4251
I6490
sS'as_text'
p4252
I4002
sS'may'
p4253
I512
sS'max'
p4254
I295
sS'fed'
p4255
I6423
sS'149'
p4256
I6360
sS'localeregexurlresolver'
p4257
I3539
sS"'th"
p4258
I5909
sS'maybe'
p4259
I5218
sS"'to"
p4260
I1421
sS'q'
I7306
sS'switch'
p4261
I6602
sS'in_create'
p4262
I5647
sS'disconnect_all'
p4263
I439
sS"'register_to"
p4264
I6718
sS'status_code'
p4265
I1100
sS'entity'
p4266
I4737
sS'objectdoesnotexist'
p4267
I695
sS"b'\\xef\\xbb\\xbf"
p4268
I1808
sS'nbsp'
p4269
I6393
sS"'latin1"
p4270
I307
sS'default_db_alias'
p4271
I1712
sS'peterson'
p4272
I6784
sS"'using"
p4273
I3186
sS'pointer'
p4274
I816
sS'group'
p4275
I2465
sS'this_bases'
p4276
I7004
sS"'files"
p4277
I2967
sS'interesting'
p4278
I6458
sS'^\\s*blocktrans'
p4279
I7380
sS'simplefilter'
p4280
I6659
sS'mail'
p4281
I1249
sS'main'
p4282
I1685
sS'email_host_password'
p4283
I1358
sS'expanduser'
p4284
I2766
sS'views'
p4285
I1064
sS'savepoint'
p4286
I1919
sS'termcolors'
p4287
I1769
sS'-inf'
p4288
I3811
sS'ext_list'
p4289
I3059
sS'cookieerror'
p4290
I4476
sS"'maxspare"
p4291
I3344
sS's_iwusr'
p4292
I3046
sS'directories'
p4293
I959
sS'crypto'
p4294
I2829
sS'getitem'
p4295
I6324
sS'attributeerror'
p4296
I100
sS'levelname'
p4297
I6664
sS'__proxy__'
p4298
I6292
sS'total_ordering'
p4299
I2297
sS'unlock'
p4300
I853
sS'missing_args_message'
p4301
I1640
sS"'ext_convert"
p4302
I6062
sS'threading'
p4303
I2
sS'configure_logger'
p4304
I6091
sS'use_i18n'
p4305
I2427
sS'nownode'
p4306
I5312
sS'decorators'
p4307
I5755
sS'correct'
p4308
I1749
sS'defaultcacheproxy'
p4309
I109
sS'after'
p4310
I2064
sS'new_file'
p4311
I1038
sS'runtimeerror'
p4312
I2875
sS"'emailfield"
p4313
I3741
sS'org'
p4314
I3207
sS'ord'
p4315
I217
sS"'get_backend_timeout"
p4316
I411
sS'language'
p4317
I2328
sS'__dispatch'
p4318
I6293
sS'fromtimestamp'
p4319
I298
sS'is_overridden'
p4320
I496
sS'modelchoiceiterator'
p4321
I4245
sS'str_number'
p4322
I6740
sS"'filter_sep"
p4323
I5006
sS"'utc"
p4324
I7190
sS'com/en/dev/releases/1'
p4325
I538
sS'fixture_dirs'
p4326
I2275
sS'first'
p4327
I592
sS'option_label'
p4328
I4393
sS"'closebrace"
p4329
I5322
sS'_fd'
p4330
I804
sS'npgettext:1c'
p4331
I2333
sS'aborting'
p4332
I2285
sS"'bpython"
p4333
I2734
sS'capfirst'
p4334
I4091
sS"'requested"
p4335
I4745
sS"'raw"
p4336
I778
sS"'\\r\\n"
p4337
I7357
sS'memo'
p4338
I3783
sS'get_override'
p4339
I4665
sS"'__getitem__"
p4340
I5110
sS'page_range'
p4341
I3094
sS'ipv4_re'
p4342
I3613
sS'10'
p4343
I584
sS'13'
p4344
I894
sS'12'
p4345
I3177
sS'15'
p4346
I1836
sS'addquickelement'
p4347
I3231
sS"'inlineformset_factory"
p4348
I4103
sS'were'
p4349
I575
sS'1/'
p4350
I6238
sS"'admins"
p4351
I502
sS'auto_created'
p4352
I2033
sS'0-5'
p4353
I3615
sS'sequence_list'
p4354
I2924
sS'parse_color_setting'
p4355
I1782
sS"'middleware_classes"
p4356
I565
sS'0-7'
p4357
I6617
sS'top-level'
p4358
I6553
sS"'use_decimal"
p4359
I3159
sS'cookie_date'
p4360
I4674
sS"'var_chars"
p4361
I5004
sS'potential'
p4362
I1791
sS'get_migration_by_prefix'
p4363
I2583
sS'serializable_value'
p4364
I4254
sS'channel'
p4365
I6217
sS'201'
p4366
I4684
sS'200'
p4367
I4682
sS'203'
p4368
I4687
sS'202'
p4369
I4685
sS'205'
p4370
I4690
sS'204'
p4371
I4689
sS'207'
p4372
I4694
sS'206'
p4373
I4692
sS'208'
p4374
I4696
sS'baseconv'
p4375
I3395
sS'pair'
p4376
I2694
sS'conditional_content_removal'
p4377
I1070
sS'x-y-z'
p4378
I7302
sS'is_valid_path'
p4379
I3552
sS'uploadhandler'
p4380
I4490
sS'nodelist_false'
p4381
I5283
sS'obj_list'
p4382
I5303
sS'extra_params'
p4383
I2146
sS'input_val'
p4384
I5159
sS'sql_list'
p4385
I2073
sS"'integerfield"
p4386
I2162
sS'_parser'
p4387
I3281
sS'fornode'
p4388
I5252
sS'show'
p4389
I2484
sS'help_texts'
p4390
I4129
sS"'bold"
p4391
I7054
sS'http_date'
p4392
I5717
sS'maxint'
p4393
I6525
sS"'invalid_time"
p4394
I3891
sS'lookuperror'
p4395
I1189
sS'formataddr'
p4396
I1401
sS'invalid_apps'
p4397
I2637
sS'sqlmigrate'
p4398
I2905
sS'make_middleware_decorator'
p4399
I6018
sS"'\\u2028"
p4400
I6409
sS'basearchive'
p4401
I5583
sS'dict'
p4402
I436
sS'dword'
p4403
I820
sS'startswith'
p4404
I368
sS'\\s+\\'
p4405
I6377
sS'get'
p4406
I140
sS'debugvariablenode'
p4407
I5124
sS'repr'
p4408
I721
sS'address_headers'
p4409
I1417
sS'introspects'
p4410
I2104
sS'\\s+|'
p4411
I7381
sS"'\\u2022"
p4412
I6359
sS'num_pages'
p4413
I3084
sS'_os'
p4414
I902
sS'yield'
p4415
I720
sS'summary'
p4416
I6252
sS'subtype'
p4417
I1453
sS'escapestring'
p4418
I6776
sS'modelbase'
p4419
I602
sS'__module__'
p4420
I636
sS'_callback'
p4421
I3476
sS'upload_complete'
p4422
I1044
sS'cache_middleware_key_prefix'
p4423
I5761
sS'tkinter_commondialog'
p4424
I6862
sS'default_max_num'
p4425
I4030
sS'relative'
p4426
I6551
sS"couldn\\'t"
p4427
I4276
sS'calendar'
p4428
I5858
sS'input_format'
p4429
I3701
sS'getdefaultencoding'
p4430
I5475
sS'word_pattern'
p4431
I6052
sS"'pubdate"
p4432
I6194
sS'label'
p4433
I1600
sS"'\\u2029"
p4434
I6411
sS'lookup_view'
p4435
I3447
sS'json_kwargs'
p4436
I3161
sS'bytes_read'
p4437
I4566
sS'reading'
p4438
I4639
sS'run_reloader'
p4439
I5610
sS'checks'
p4440
I474
sS"'mixed"
p4441
I1466
sS'fcntl'
p4442
I854
sS'infrastructure'
p4443
I7343
sS'parent'
p4444
I3457
sS'tup'
p4445
I6687
sS'run_validators'
p4446
I3773
sS'compile_messages'
p4447
I1860
sS'js'
p4448
I2378
sS'prog_name'
p4449
I1548
sS'run_shell'
p4450
I2756
sS'unpacked_vars'
p4451
I5278
sS'dates'
p4452
I3659
sS'_clean_form'
p4453
I3985
sS'generic_lang_code'
p4454
I7288
sS'according'
p4455
I4615
sS'base36_alphabet'
p4456
I5699
sS'decimals'
p4457
I3815
sS'model_checks'
p4458
I478
sS'unittest'
p4459
I7424
sS"'lookup"
p4460
I4214
sS'serialization'
p4461
I1955
sS'cancel'
p4462
I2083
sS"'to_field"
p4463
I4234
sS'keep-pot'
p4464
I2411
sS'imp'
p4465
I6729
sS'varlist'
p4466
I5284
sS'uclass'
p4467
I4200
sS'mark'
p4468
I1866
sS"'already"
p4469
I4697
sS"'skip_checks"
p4470
I1711
sS'fmatch'
p4471
I7408
sS'save_existing_objects'
p4472
I4191
sS'400'
p4473
I1142
sS'squash'
p4474
I2796
sS"'cfg"
p4475
I6063
sS"'migration"
p4476
I2783
sS'i18n'
p4477
I670
sS"'boundary"
p4478
I4502
sS'those'
p4479
I1367
sS'^'
I2659
sS'has_ipv6'
p4480
I2689
sS'new_errors'
p4481
I649
sS'subcommand_cls'
p4482
I1587
sS'__mod__'
p4483
I6313
sS"b'\\x00"
p4484
I5805
sS"'precondition"
p4485
I4735
sS"'step"
p4486
I3799
sS'cancelled'
p4487
I2097
sS'multiple_chunks'
p4488
I761
sS'408'
p4489
I4728
sS'ehlo'
p4490
I1374
sS'fileuploadhandler'
p4491
I1033
sS"'revcounter"
p4492
I5271
sS'maxvaluevalidator'
p4493
I3641
sS"'_deleted_form_indexes"
p4494
I4060
sS'endswith'
p4495
I942
sS'b64encode'
p4496
I304
sS'malformed'
p4497
I5399
sS'shutil'
p4498
I858
sS'comments'
p4499
I6188
sS'candidate_pat'
p4500
I3536
sS'binasciierror'
p4501
I6483
sS'pat'
p4502
I3498
sS'pgettext'
p4503
I7099
sS'real_value'
p4504
I4483
sS'xml_serializer'
p4505
I3108
sS'same'
p4506
I5467
sS"'csrfmiddlewaretoken"
p4507
I5240
sS'authentication'
p4508
I4727
sS'pad'
p4509
I3403
sS'arguments'
p4510
I1766
sS'is_reversed'
p4511
I5256
sS'exhaust'
p4512
I4531
sS'safe'
p4513
I4663
sS'nodename'
p4514
I3242
sS'decompress'
p4515
I352
sS'morekwargs'
p4516
I6287
sS'running'
p4517
I531
sS"'i18n_close"
p4518
I4990
sS'get_urlconf'
p4519
I3541
sS'get_indexes'
p4520
I2142
sS'db_name'
p4521
I2891
sS"'open"
p4522
I1926
sS"'namedtemporaryfile"
p4523
I975
sS"'_catalog"
p4524
I7339
sS'django-objects'
p4525
I3223
sS"'regroup"
p4526
I5391
sS"'msguniq"
p4527
I2431
sS"'directory"
p4528
I2826
sS'only_django'
p4529
I2074
sS'ipapp'
p4530
I2750
sS'radiochoiceinput'
p4531
I4403
sS"'formatters"
p4532
I6099
sS'param'
p4533
I5052
sS'is_writable'
p4534
I1811
sS'divisibleby'
p4535
I5216
sS'4'
I1456
sS'colspan'
p4536
I3963
sS'token_mapping'
p4537
I4902
sS"'sqlsequencereset"
p4538
I1598
sS'get_cache'
p4539
I58
sS'mon'
p4540
I6500
sS'user_function'
p4541
I6696
sS'mod'
p4542
I3454
sS"'__main__"
p4543
I3392
sS'get_handler'
p4544
I2686
sS"'ve"
p4545
I3358
sS'guessed_filename'
p4546
I3036
sS'either'
p4547
I2357
sS"'from"
p4548
I1418
sS'get_user_model'
p4549
I2837
sS"'feed_url"
p4550
I6183
sS'trim_whitespace_re'
p4551
I7289
sS'`request'
p4552
I1202
sS'specified'
p4553
I1846
sS'matching'
p4554
I2393
sS"'template_loaders"
p4555
I500
sS'color_style'
p4556
I1519
sS'validate_unique'
p4557
I4164
sS"'_filter_name"
p4558
I5357
sS'critical'
p4559
I468
sS'getmembers'
p4560
I5591
sS'possible_sizes'
p4561
I4507
sS'seconds'
p4562
I3431
sS'handle_charref'
p4563
I6426
sS'messagebox'
p4564
I6872
sS'syms'
p4565
I5535
sS"'text/"
p4566
I1464
sS'_set_queryset'
p4567
I4251
sS"'extensions"
p4568
I2374
sS'_illegal_formatting'
p4569
I5983
sS'__setslice__'
p4570
I5855
sS"'tried"
p4571
I3510
sS'cache_header'
p4572
I5758
sS'isoformat'
p4573
I3169
sS'apply_success'
p4574
I2607
sS"'get_default_timezone"
p4575
I7192
sS'references'
p4576
I2625
sS'strip'
p4577
I2931
sS'_cache'
p4578
I392
sS'default_kwargs'
p4579
I3482
sS'shells'
p4580
I2732
sS'addslashes'
p4581
I5150
sS'decode'
p4582
I306
sS"'database"
p4583
I1713
sS'ipv4'
p4584
I2660
sS"'filepathfield"
p4585
I3753
sS'variable_name'
p4586
I5244
sS'has_bz2'
p4587
I2215
sS'as_textarea'
p4588
I4003
sS"'_get_memcache_timeout"
p4589
I410
sS'using_sysrandom'
p4590
I5775
sS"'propagate"
p4591
I6132
sS"'verbosity"
p4592
I1671
sS"'i18n_open"
p4593
I4989
sS'_replace_entity'
p4594
I7172
sS'urlsafe_b64encode'
p4595
I3401
sS'email_use_tls'
p4596
I1359
sS'sanitize_address'
p4597
I1351
sS'embed'
p4598
I2755
sS'sql_keyword'
p4599
I1715
sS'subclasses'
p4600
I1753
sS"'engine"
p4601
I2906
sS'quote_double_quotes'
p4602
I7167
sS"'test_runner"
p4603
I497
sS"'run_checks"
p4604
I486
sS'radioselect'
p4605
I4422
sS"'merge"
p4606
I2489
sS"'modelchoicefield"
p4607
I4097
sS'examine'
p4608
I2375
sS"'manage"
p4609
I2602
sS'file'
p4610
I723
sS'importing'
p4611
I3302
sS'smart_urlquote'
p4612
I6434
sS"'httpresponseredirect"
p4613
I4455
sS'field'
p4614
I550
sS'utf-8'
p4615
I1869
sS'safe_input'
p4616
I6438
sS'_format_cache'
p4617
I6258
sS'num_items'
p4618
I6201
sS'max_value'
p4619
I3789
sS'write_pot_file'
p4620
I2346
sS'cache_suffix'
p4621
I337
sS'decorated'
p4622
I5049
sS'`field`'
p4623
I3977
sS'last_bit'
p4624
I5119
sS'get_language_info'
p4625
I7286
sS'unclosed_block_tag'
p4626
I4961
sS'phone2numeric'
p4627
I5141
sS'u'
I2120
sS'starting'
p4628
I2712
sS'djangojsonencoder'
p4629
I3165
sS'represent'
p4630
I3175
sS"'lock"
p4631
I802
sS'get_model'
p4632
I2003
sS'model_label'
p4633
I2006
sS'fixtures'
p4634
I1956
sS'children'
p4635
I7413
sS'httpresponseservererror'
p4636
I4444
sS'_setupfunc'
p4637
I6330
sS'html_class_attr'
p4638
I3944
sS'prefixed'
p4639
I1938
sS'strptime'
p4640
I3703
sS"'text"
p4641
I1494
sS'_super'
p4642
I6327
sS'_make_key'
p4643
I6689
sS'urllib_parse'
p4644
I6875
sS"'urlinput"
p4645
I4289
sS'fields_for_model'
p4646
I4126
sS'int2byte'
p4647
I6981
sS'translations'
p4648
I2454
sS'util'
p4649
I3292
sS'hextet'
p4650
I6570
sS'smigration'
p4651
I2810
sS'isabs'
p4652
I2274
sS'stderr'
p4653
I1571
sS'dummy_threading'
p4654
I7027
sS'_input_data'
p4655
I4506
sS"'table_name_filter"
p4656
I2113
sS'criticals'
p4657
I1723
sS'getvalue'
p4658
I1449
sS'zero'
p4659
I2582
sS'val2'
p4660
I5295
sS"'min_num_forms"
p4661
I4023
sS'accept_language_re'
p4662
I7298
sS'compile'
p4663
I2302
sS'_decorator'
p4664
I6023
sS'ffff'
p4665
I6568
sS'abs'
p4666
I1345
sS"'application/rss+xml"
p4667
I6214
sS'cull_num'
p4668
I317
sS"'is_naive"
p4669
I7201
sS"'utf-8"
p4670
I1162
sS"'label"
p4671
I1760
sS"'http_x_requested_with"
p4672
I4627
sS'i_args'
p4673
I6773
sS"'sunday"
p4674
I5946
sS'max_age'
p4675
I3422
sS"'handlers"
p4676
I6084
sS'dict_'
p4677
I5106
sS'component'
p4678
I5562
sS'rlock'
p4679
I1308
sS'update_wrapper'
p4680
I6003
sS'removedindjango19warning'
p4681
I27
sS'getinnertext'
p4682
I3256
sS'vals'
p4683
I7162
sS'iso_input'
p4684
I6269
sS'search'
p4685
I2463
sS'error_class'
p4686
I3925
sS'dicts'
p4687
I5105
sS"'description"
p4688
I6176
sS's\\n\\nrequest'
p4689
I6670
sS'multipartparser'
p4690
I4497
sS"'coerce"
p4691
I3868
sS"'json"
p4692
I1952
sS'debugger'
p4693
I6598
sS'base_url'
p4694
I937
sS'getmtime'
p4695
I967
sS'_tc'
p4696
I4472
sS'+|\\'
p4697
I4601
sS"'django_"
p4698
I3027
sS'destination'
p4699
I881
sS'two'
p4700
I4625
sS'basefix'
p4701
I5541
sS'setup_environ'
p4702
I3311
sS'_iterkeys'
p4703
I5832
sS'permissiondenied'
p4704
I703
sS'unreadableposterror'
p4705
I4434
sS'main_value_pair'
p4706
I4580
sS'references_to_delete'
p4707
I2919
sS'none'
p4708
I137
sS'include'
p4709
I5309
sS"'_dimensions_cache"
p4710
I785
sS'hour'
p4711
I5875
sS'middle'
p4712
I6440
sS'dep'
p4713
I2028
sS"'__weakref__"
p4714
I7009
sS'++'
p4715
I6630
sS'del'
p4716
I400
sS'dec'
p4717
I5063
sS"'constant"
p4718
I5000
sS'compare'
p4719
I3634
sS'parse_qs'
p4720
I6889
sS'numbers'
p4721
I2548
sS'_cached_modules'
p4722
I5617
sS'email_use_ssl'
p4723
I1360
sS'!'
I123
sS'strip_tags'
p4724
I5136
sS'needs'
p4725
I577
sS'\\xa0'
p4726
I6448
sS'literal_regex'
p4727
I3596
sS'object_list'
p4728
I3073
sS"'modelformset_factory"
p4729
I4101
sS'mutable'
p4730
I4512
sS'verbose_name'
p4731
I250
sS'_response_middleware'
p4732
I1074
sS'upload_handlers'
p4733
I4498
sS'widthratio'
p4734
I5333
sS'clear_script_prefix'
p4735
I3551
sS'value_to_string'
p4736
I3182
sS'response'
p4737
I1104
sS'resolver_match'
p4738
I1117
sS'find_files'
p4739
I2440
sS'textinput'
p4740
I3720
sS'-\\177'
p4741
I3591
sS'modified_code'
p4742
I5634
sS'disable_existing'
p4743
I6095
sS'extendsnode'
p4744
I5449
sS'hostname'
p4745
I6162
sS'boundaryiter'
p4746
I4561
sS'form_errors'
p4747
I4072
sS'serializationerror'
p4748
I3129
sS'through'
p4749
I2032
sS'filters'
p4750
I4940
sS'file_list'
p4751
I2439
sS'path_rest'
p4752
I2989
sS'24'
p4753
I6154
sS'25'
p4754
I3614
sS'26'
p4755
I3171
sS'20'
p4756
I585
sS'intrans'
p4757
I7389
sS'23'
p4758
I3170
sS"'add"
p4759
I287
sS"'fix_location_header"
p4760
I4465
sS'28'
p4761
I5994
sS'detected'
p4762
I2500
sS'01-jan-1970'
p4763
I4816
sS'snull'
p4764
I1914
sS'npgettext_lazy'
p4765
I7277
sS'urllib_robotparser'
p4766
I6877
sS'__defaults__'
p4767
I6957
sS'check_path'
p4768
I7282
sS'timestamp'
p4769
I1338
sS"'store_false"
p4770
I2055
sS'inclusionnode'
p4771
I5078
sS'hyphens'
p4772
I3612
sS'complain'
p4773
I5850
sS'func_globals'
p4774
I6965
sS'fail_silently'
p4775
I1276
sS'i18n_close'
p4776
I4984
sS'urlquote'
p4777
I455
sS'token'
p4778
I660
sS"'modelmultiplechoicefield"
p4779
I4098
sS'base56_alphabet'
p4780
I5697
sS'module_name'
p4781
I6725
sS'base_dir'
p4782
I499
sS"'validationerror"
p4783
I722
sS'pflen'
p4784
I6107
sS'unique_for'
p4785
I4208
sS's_iread'
p4786
I5565
sS'_has_expired'
p4787
I396
sS'connect'
p4788
I72
sS'_namespace_dict'
p4789
I3485
sS'setsid'
p4790
I5819
sS'_rollback'
p4791
I4563
sS'tcsanow'
p4792
I5672
sS"'contradiction"
p4793
I3840
sS'guid_attrs'
p4794
I6239
sS"'docs_version"
p4795
I2984
sS'foreground'
p4796
I7051
sS'boundfield'
p4797
I3931
sS'simplerxmlgenerator'
p4798
I3213
sS'term'
p4799
I6248
sS'disposition'
p4800
I4521
sS'sanitize_separators'
p4801
I3793
sS"'sqlcustom"
p4802
I1596
sS'`streaming_content`'
p4803
I4828
sS"'allow_cascade"
p4804
I2070
sS'module_values'
p4805
I5621
sS"'pk"
p4806
I2268
sS'pk_key'
p4807
I4182
sS"'py"
p4808
I2879
sS'label_output'
p4809
I1762
sS'app_label'
p4810
I246
sS'do_for'
p4811
I5363
sS'oserror'
p4812
I369
sS"'make_msgid"
p4813
I1267
sS"'address"
p4814
I6127
sS'token_type'
p4815
I4925
sS'instances'
p4816
I2822
sS"'october"
p4817
I5962
sS"'html_class_attr"
p4818
I3952
sS'is_bound'
p4819
I3927
sS'least'
p4820
I1740
sS'181'
p4821
I5900
sS'constraint_checks_disabled'
p4822
I2244
sS'statement'
p4823
I1923
sS"'shutdown_message"
p4824
I2703
sS'prepare_js_for_gettext'
p4825
I2300
sS'potfile'
p4826
I2343
sS"'django_auto_complete"
p4827
I1576
sS'smart_split_re'
p4828
I7171
sS'feature_external_pes'
p4829
I3267
sS'part'
p4830
I7094
sS'candidate_subs'
p4831
I3535
sS"'robotparser"
p4832
I6945
sS'notfound'
p4833
I452
sS'backend_cls'
p4834
I91
sS'b'
I890
sS'form_class_attrs'
p4835
I4170
sS'_tab'
p4836
I7
sS'get_method_function'
p4837
I6972
sS'headers'
p4838
I1475
sS'onerror'
p4839
I3009
sS"'link"
p4840
I6175
sS'liveserver'
p4841
I2866
sS'interactive'
p4842
I2066
sS'st_ctime'
p4843
I5654
sS'debugging'
p4844
I2416
sS'linebreaksbr'
p4845
I5189
sS"'store"
p4846
I1669
sS'accessed_time'
p4847
I933
sS"'notice"
p4848
I7074
sS'paths'
p4849
I930
sS"'disable_existing_loggers"
p4850
I6096
sS"'23456789abcdefghjklmnpqrstuvwxyzabcdefghijkmnpqrstuvwxyz"
p4851
I5698
sS'templatize'
p4852
I2316
sS'k2'
p4853
I3864
sS'start_serialization'
p4854
I3132
sS'path_to_remove'
p4855
I3007
sS'in_tag'
p4856
I4933
sS"'model_to_dict"
p4857
I4094
sS'unapply'
p4858
I2592
sS'cyclevars'
p4859
I5243
sS"'process_exception"
p4860
I1090
sS'local_fields'
p4861
I554
sS'most'
p4862
I3651
sS"'80"
p4863
I4611
sS'~/'
p4864
I2740
sS"'_offset"
p4865
I835
sS'kb'
p4866
I5222
sS"'class"
p4867
I2138
sS"'zh-hant"
p4868
I7318
sS"'get_cache"
p4869
I33
sS'kw'
p4870
I5935
sS"'models"
p4871
I644
sS'liveservertestcase'
p4872
I2871
sS'key_prefix'
p4873
I133
sS'httphandler'
p4874
I6920
sS'row_data'
p4875
I4203
sS"'last"
p4876
I5274
sS"'item_copyright"
p4877
I6200
sS'find'
p4878
I82
sS'latest_post_date'
p4879
I6207
sS'ordered_forms'
p4880
I4063
sS'message_from_string'
p4881
I1391
sS"'updateddate"
p4882
I6195
sS'+|\\w'
p4883
I7176
sS"'bad_cookies"
p4884
I4485
sS'override'
p4885
I1304
sS'8'
I2877
sS'find_template'
p4886
I5432
sS'permission'
p4887
I1138
sS"'_size"
p4888
I752
sS'unicode_value'
p4889
I3820
sS'resolve'
p4890
I1118
sS'valid_ident'
p4891
I6041
sS'old_timezone'
p4892
I7226
sS'remove'
p4893
I366
sS'_format_value'
p4894
I4337
sS'prefix_norm'
p4895
I3532
sS'common'
p4896
I2398
sS'assertitemsequal'
p4897
I7022
sS'outer_html'
p4898
I4408
sS'_ipython'
p4899
I2753
sS'_get_val'
p4900
I659
sS'r\\ntype'
p4901
I1572
sS'get_traceback_html'
p4902
I6673
sS'superseded'
p4903
I1754
sS'please'
p4904
I2218
sS'defaultfilters'
p4905
I5099
sS'valid_value'
p4906
I3862
sS'migrations_directory'
p4907
I2524
sS'emailmessage'
p4908
I1252
sS"'sql_keyword"
p4909
I7077
sS"'backend"
p4910
I90
sS"'make"
p4911
I3018
sS"'django_settings_module"
p4912
I1642
sS"'errorlist"
p4913
I4271
sS'ipython'
p4914
I2730
sS'parse_qsl'
p4915
I4594
sS'kwargs2'
p4916
I6012
sS'validate_integer'
p4917
I3582
sS"'0000:0000:0000:0000:0000"
p4918
I6567
sS'foreign'
p4919
I1973
sS'post_migrate'
p4920
I2949
sS'mean'
p4921
I4145
sS'illegal_formatting'
p4922
I5991
sS'consume'
p4923
I1030
sS'starttls'
p4924
I1375
sS'slugfield'
p4925
I3897
sS'get_table_description'
p4926
I2144
sS'sqlcustom'
p4927
I2136
sS'attrs_plus'
p4928
I4412
sS'ioerror'
p4929
I354
sS'check_migrations'
p4930
I2709
sS"'_regex_validator"
p4931
I3832
sS'not_found'
p4932
I5439
sS'|\\\\u'
p4933
I6610
sS'backend'
p4934
I59
sS'paras'
p4935
I6420
sS'raise'
p4936
I48
sS"'xgettext"
p4937
I2326
sS'create'
p4938
I1334
sS'default_storage'
p4939
I974
sS'secret'
p4940
I5781
sS'dot_re'
p4941
I7371
sS'project_name'
p4942
I2831
sS'_create_cache'
p4943
I70
sS"'_decorated_function"
p4944
I5021
sS'\\nyou'
p4945
I2724
sS'floatfield'
p4946
I3796
sS"'hide_empty"
p4947
I2229
sS"'safemimetext"
p4948
I1264
sS'pre_migrate'
p4949
I2946
sS"'follows"
p4950
I2387
sS"'context"
p4951
I4889
sS'replaces'
p4952
I2643
sS'_populated'
p4953
I3488
sS'raw'
p4954
I3147
sS'linecomment'
p4955
I6593
sS'syear'
p4956
I6000
sS"'error_dict"
p4957
I712
sS'cleanup_url'
p4958
I3024
sS"'january"
p4959
I5954
sS'email_port'
p4960
I1356
sS'middlewarenotused'
p4961
I705
sS'ordereddict'
p4962
I1942
sS'_mark_post_parse_error'
p4963
I4641
sS'encountered'
p4964
I3227
sS'media_attrs'
p4965
I4310
sS'wsgi_handler'
p4966
I3327
sS'_cookie_allows_colon_in_names'
p4967
I4475
sS'parse_time'
p4968
I5936
sS"'is_aware"
p4969
I7200
sS'oldkey'
p4970
I6705
sS"'comp_cword"
p4971
I1580
sS'copying'
p4972
I2466
sS'add_handlers'
p4973
I6130
sS"'filter"
p4974
I5352
sS'development'
p4975
I2675
sS'_iteritems'
p4976
I5830
sS'keys'
p4977
I192
sS'assignment'
p4978
I5408
sS'sys'
p4979
I1062
sS"'absolute"
p4980
I2293
sS'_leftover'
p4981
I4538
sS'full_file'
p4982
I3889
sS'value_to_db_datetime'
p4983
I312
sS'_coerce'
p4984
I3780
sS'rules'
p4985
I6583
sS'_create_message'
p4986
I1480
sS'token_block'
p4987
I4851
sS"'template_name"
p4988
I5496
sS'flags'
p4989
I849
sS'y'
I1340
sS'entry'
p4990
I251
sS"'examining"
p4991
I2428
sS'_assertcountequal'
p4992
I7014
sS'new_method'
p4993
I6037
sS'izip'
p4994
I6816
sS'updated/created'
p4995
I1875
sS'atomic'
p4996
I308
sS'\\*/'
p4997
I6592
sS"'module"
p4998
I2856
sS'alternative'
p4999
I1505
sS'simple_url_re'
p5000
I6366
sS'newlines'
p5001
I1052
sS'cut'
p5002
I5185
sS'alternate'
p5003
I4802
sS'modelform_defines_fields'
p5004
I4259
sS'ldir'
p5005
I1855
sS'source'
p5006
I2348
sS'_sanitize_ipv4_mapping'
p5007
I6562
sS'all_unique_checks'
p5008
I4193
sS'remove_tags'
p5009
I5138
sS'big'
p5010
I5801
sS'sysloghandler'
p5011
I6126
sS'comment_tag_end'
p5012
I4845
sS'prepare_sql_script'
p5013
I2943
sS'bit'
p5014
I4929
sS"'genericipaddressfield"
p5015
I3752
sS'_setup'
p5016
I972
sS'flup'
p5017
I2648
sS'httponly'
p5018
I4805
sS'\\001-\\010\\013\\014\\016-\\037'
p5019
I3589
sS'back'
p5020
I4973
sS'filewrapper'
p5021
I3293
sS'apply'
p5022
I2590
sS'sizeof'
p5023
I810
sS'server'
p5024
I414
sS'cpickle'
p5025
I233
sS'per'
p5026
I7309
sS'model_installed'
p5027
I2617
sS'external_entity_ref_handler'
p5028
I3278
sS'pylibmc'
p5029
I451
sS'308'
p5030
I4716
sS'deconstructible'
p5031
I906
sS"'django_live_test_server_address"
p5032
I2884
sS'300'
p5033
I142
sS'301'
p5034
I4702
sS'302'
p5035
I4705
sS'303'
p5036
I4707
sS'304'
p5037
I4709
sS'305'
p5038
I4710
sS'306'
p5039
I4711
sS'307'
p5040
I4713
sS'feb'
p5041
I6489
sS'is_naive'
p5042
I4272
sS'optimize'
p5043
I2800
sS"b'\\r"
p5044
I767
sS'setlist'
p5045
I4657
sS'get_language_bidi'
p5046
I677
sS'extensions'
p5047
I2318
sS"b'\\n"
p5048
I766
sS'int_part_gd'
p5049
I6743
sS'autoescapecontrolnode'
p5050
I5236
sS'__future__'
p5051
I125
sS'pythonpath'
p5052
I1614
sS'fileinput'
p5053
I4349
sS"'application/octet-stream"
p5054
I1405
sS'__func__'
p5055
I6950
sS"'string"
p5056
I6642
sS'errno'
p5057
I325
sS'prefixed_name'
p5058
I3989
sS'httppasswordmgr'
p5059
I6912
sS'libraryvaluenotfoundexception'
p5060
I420
sS'translate'
p5061
I5027
sS'endtag'
p5062
I4963
sS'email_host_user'
p5063
I1357
sS"'null"
p5064
I2169
sS'django_dir'
p5065
I2460
sS"'rd"
p5066
I5912
sS"'re"
p5067
I3001
sS"'rb"
p5068
I349
sS"'rc"
p5069
I7434
sS'force_script_name'
p5070
I1243
sS"'cache-control"
p5071
I5723
sS'_anonymous_'
p5072
I834
sS"'models/sql"
p5073
I2934
sS'constant'
p5074
I4991
sS'curs'
p5075
I1921
sS'single'
p5076
I2795
sS'isdigit'
p5077
I2193
sS'encoders'
p5078
I1390
sS'%'
I54
sS'deactivate_all'
p5079
I7279
sS'tempdir'
p5080
I3029
sS'unparsedentitydeclhandler'
p5081
I3284
sS"'subtitle"
p5082
I6181
sS'to_lower'
p5083
I7323
sS'parse_until'
p5084
I4943
sS'month_none_value'
p5085
I3693
sS'update_watch'
p5086
I5639
sS'get_exception_response'
p5087
I1098
sS'get_block'
p5088
I5446
sS'_empty'
p5089
I4537
sS'confirm'
p5090
I2075
sS'2002'
p5091
I3208
sS'2000'
p5092
I5992
sS'failures'
p5093
I2885
sS'shutdown_message'
p5094
I2702
sS'sup_cls'
p5095
I4330
sS'changeset'
p5096
I7444
sS'script_name'
p5097
I1175
sS'template_loaders'
p5098
I5426
sS'p_pattern'
p5099
I3495
sS'natural-foreign'
p5100
I1971
sS'query'
p5101
I3579
sS'viewname'
p5102
I3542
sS'sorted_items'
p5103
I6694
sS'no-optimize'
p5104
I2797
sS'commandparser'
p5105
I1516
sS'javascript_quote'
p5106
I7166
sS'en-au'
p5107
I7301
sS'allow_lazy'
p5108
I6315
sS'labels'
p5109
I1761
sS'a-fa-f0-9'
p5110
I2665
sS'simplenode'
p5111
I5069
sS"'domain"
p5112
I2370
sS"'cc"
p5113
I1422
sS'_handle_m2m_field_node'
p5114
I3253
sS"'beta"
p5115
I7433
sS'default_file_storage'
p5116
I970
sS'entire'
p5117
I1790
sS'getdefaultlocale'
p5118
I6150
sS'buffer_types'
p5119
I7020
sS'exponentpart-opt'
p5120
I6625
sS'callback_args'
p5121
I1120
sS'0x2'
p5122
I826
sS'0x1'
p5123
I824
sS'0x0'
p5124
I6571
sS'start_new_thread'
p5125
I5686
sS'_get_scheme'
p5126
I1196
sS'append'
p5127
I627
sS"'key_function"
p5128
I158
sS'_thread'
p5129
I5603
sS'argset'
p5130
I3351
sS'access'
p5131
I879
sS'ifequal'
p5132
I5371
sS'e001'
p5133
I638
sS'language_code_re'
p5134
I7310
sS'body'
p5135
I1472
sS'main_help_text'
p5136
I1550
sS'usegmt'
p5137
I6517
sS'objects'
p5138
I1985
sS"'304"
p5139
I3319
sS'pagenotaninteger'
p5140
I3070
sS'raw_query_string'
p5141
I1209
sS's\\n'
p5142
I1314
sS'33'
p5143
I219
sS'32'
p5144
I892
sS'31'
p5145
I4509
sS'30'
p5146
I586
sS'36'
p5147
I6524
sS'url_info'
p5148
I6547
sS'node_name'
p5149
I2545
sS"'lock_nb"
p5150
I801
sS'func_defaults'
p5151
I6964
sS'weekday'
p5152
I5905
sS'implement'
p5153
I3883
sS"'failed"
p5154
I2864
sS'/th'
p5155
I3959
sS'named'
p5156
I2217
sS'disallowedhost'
p5157
I701
sS"'get"
p5158
I5760
sS'/td'
p5159
I3961
sS"'baseformset"
p5160
I4015
sS"'fileinput"
p5161
I4295
sS'names'
p5162
I1885
sS'/tr'
p5163
I3962
sS'auth_password'
p5164
I1285
sS'gateway'
p5165
I4769
sS'djangotranslation'
p5166
I7325
sS'prev_opts'
p5167
I1607
sS"'basecache"
p5168
I39
sS'conn_type'
p5169
I7419
sS'chr'
p5170
I6980
sS'get_by_natural_key'
p5171
I3152
sS"'__gt__"
p5172
I6340
sS'ugettext_lazy'
p5173
I2336
sS'sindex'
p5174
I1917
sS'getaddresses'
p5175
I1400
sS'text_type'
p5176
I662
sS'safeseq'
p5177
I5190
sS'accessor_name'
p5178
I3148
sS"'ctrl-break"
p5179
I2705
sS'name2'
p5180
I7186
sS'f_locals'
p5181
I6998
sS'f'
I350
sS'dest'
p5182
I1670
sS'renderermixin'
p5183
I4416
sS'selectmultiple'
p5184
I3729
sS'ch2'
p5185
I6764
sS'closing'
p5186
I6444
sS"'_get"
p5187
I4630
sS'key_to_list_mapping'
p5188
I5845
sS'reserved'
p5189
I2191
sS'file_complete'
p5190
I1042
sS'in_moved_to'
p5191
I5646
sS'used_name'
p5192
I3034
sS'pvoid'
p5193
I828
sS'new_mod'
p5194
I6803
sS'check_all_models'
p5195
I614
sS'filepath'
p5196
I5306
sS'loaderorigin'
p5197
I5420
sS"'utime"
p5198
I866
sS'context_extras'
p5199
I664
sS'ungettext_lazy:1'
p5200
I2337
sS"'test_label"
p5201
I2855
sS"'textinput"
p5202
I4287
sS'inst'
p5203
I6766
sS'rmtree'
p5204
I3008
sS"'add_"
p5205
I4313
sS'ambiguous'
p5206
I4280
sS'custom_sql_for_model'
p5207
I2555
sS'cachehandler'
p5208
I93
sS'lines'
p5209
I2130
sS"'abbrev"
p5210
I5977
sS'urlresolvers'
p5211
I1063
sS"'splitdatetimewidget"
p5212
I4306
sS'import_module'
p5213
I1512
sS"'resent-to"
p5214
I1426
sS'_i18n_cache_key_suffix'
p5215
I5749
sS"'1_7"
p5216
I582
sS'popitem'
p5217
I4662
sS"'urlconf"
p5218
I1116
sS'templatetag'
p5219
I5397
sS'utcnow'
p5220
I315
sS"'max_whole_digits"
p5221
I3807
sS'temporaryfile'
p5222
I977
sS'common_logger_config'
p5223
I6131
sS'hashvalue'
p5224
I6688
sS"'0123456789"
p5225
I5707
sS'li'
p5226
I3969
sS'lt'
p5227
I6355
sS'negotiates'
p5228
I4778
sS'sig'
p5229
I3427
sS'_assertregex'
p5230
I7018
sS'do_include'
p5231
I5469
sS'<'
I218
sS'fixunicode'
p5232
I5540
sS'greater'
p5233
I3645
sS'__getitem__'
p5234
I98
sS'in_index'
p5235
I5366
sS"'template"
p5236
I457
sS'strip_entities'
p5237
I6433
sS'uploadedfile'
p5238
I993
sS'regroupnode'
p5239
I5300
sS'day'
p5240
I3699
sS'toks'
p5241
I6582
sS'model_dependencies'
p5242
I2022
sS'exts'
p5243
I2423
sS'first_item'
p5244
I5200
sS'repr_attr'
p5245
I6331
sS"'unsupported"
p5246
I4743
sS'identified'
p5247
I1733
sS'is_templatized'
p5248
I2319
sS"'overrides"
p5249
I2868
sS'identifier'
p5250
I2196
sS'activate'
p5251
I1708
sS"'last-modified"
p5252
I5736
sS'template_debug'
p5253
I4915
sS'mail_managers'
p5254
I1299
sS'autofield'
p5255
I4108
sS'thousand_sep'
p5256
I6279
sS'force_bytes'
p5257
I243
sS'res'
p5258
I4981
sS'typedchoicefield'
p5259
I3866
sS'ret'
p5260
I432
sS'rel'
p5261
I2029
sS'reg'
p5262
I6629
sS'math'
p5263
I3067
sS'tkfiledialog'
p5264
I6866
sS"'true"
p5265
I3379
sS'get_resolver'
p5266
I3459
sS'context_match'
p5267
I7407
sS'backwards'
p5268
I2784
sS'indent'
p5269
I1957
sS'_options'
p5270
I422
sS'middleware_method'
p5271
I1115
sS'day_field'
p5272
I3680
sS'tail_len'
p5273
I5260
sS'urlconf'
p5274
I1110
sS'cache_info'
p5275
I6707
sS'suffix'
p5276
I980
sS"'http_cookie"
p5277
I1222
sS'fixedoffset'
p5278
I7204
sS'_regex'
p5279
I3468
sS"'initial"
p5280
I4051
sS'singlezipreader'
p5281
I2240
sS"'multipart/"
p5282
I4500
sS'close_fds'
p5283
I3052
sS'user_settings'
p5284
I1940
sS"'w+b"
p5285
I978
sS'ip_address_validator_map'
p5286
I3622
sS'only_existing'
p5287
I2922
sS'rmdir'
p5288
I5574
sS'get_related_field'
p5289
I4181
sS'as_data'
p5290
I3982
sS'lock_nb'
p5291
I823
sS'xmlns'
p5292
I6221
sS'content_type'
p5293
I994
sS"'change"
p5294
I4352
sS'textfield'
p5295
I1904
sS'completer'
p5296
I2761
sS"'failfast"
p5297
I2861
sS'tkinter_colorchooser'
p5298
I6859
sS'migrationwriter'
p5299
I2479
sS's_year'
p5300
I3683
sS"'floatfield"
p5301
I3749
sS'text_value'
p5302
I3863
sS"'to_locale"
p5303
I7239
sS'reloader_thread'
p5304
I5673
sS'have'
p5305
I557
sS'unpack_ipv4'
p5306
I3627
sS'to_field_name'
p5307
I4249
sS'methodcaller'
p5308
I6982
sS'__cause__'
p5309
I6068
sS'set_cdata_mode'
p5310
I6457
sS'min'
p5311
I4042
sS'project_state'
p5312
I2507
sS"'django"
p5313
I503
sS'disallowedredirect'
p5314
I702
sS'mix'
p5315
I3522
sS'builtin'
p5316
I1815
sS'csafeloader'
p5317
I3199
sS'unique_id_is_permalink'
p5318
I6190
sS'is_safe'
p5319
I5149
sS'unless'
p5320
I1948
sS'time_format'
p5321
I4430
sS'quote_plus'
p5322
I6484
sS'propagate'
p5323
I6110
sS"'make_naive"
p5324
I7203
sS'walk_to_end'
p5325
I6753
sS"'charfield"
p5326
I2168
sS"'underscore"
p5327
I7055
sS'request'
p5328
I658
sS'model_fields'
p5329
I3190
sS'filelist'
p5330
I370
sS'template_parser'
p5331
I5376
sS'__slots__'
p5332
I6685
sS"'enter"
p5333
I3559
sS'}'
I102
sS'wsgirequest'
p5334
I1172
sS'construct_instance'
p5335
I4105
sS'months_ap'
p5336
I5861
sS'text'
p5337
I900
sS'django_1_7_0'
p5338
I477
sS'supported'
p5339
I2110
sS"'datetimeinput"
p5340
I4297
sS'lookup_str'
p5341
I3494
sS'setter'
p5342
I4629
sS'pickleprotocol'
p5343
I449
sS'default_logging'
p5344
I6647
sS'doublecolon_start'
p5345
I6559
sS'make_list'
p5346
I5169
sS'emitting'
p5347
I4546
sS"'add_arguments"
p5348
I2878
sS'limit_choices_to'
p5349
I3776
sS'namedtuple'
p5350
I6679
sS"'storage"
p5351
I907
sS'csrf'
p5352
I655
sS"'temporary"
p5353
I4714
sS'get_default_prefix'
p5354
I4034
sS'cached'
p5355
I6268
sS'calling'
p5356
I4171
sS'input_date_formats'
p5357
I3892
sS'migration_plan'
p5358
I2587
sS'sub_tried'
p5359
I3509
sS'cycles'
p5360
I5347
sS'caches'
p5361
I46
sS'template_tuple'
p5362
I5485
sS"'invalid_choice"
p5363
I3856
sS'exists'
p5364
I347
sS'get_nodes_by_type'
p5365
I5039
sS'|\\s|'
p5366
I6394
sS'get_many'
p5367
I191
sS'o_creat'
p5368
I886
sS"'http_content_length"
p5369
I4504
sS"'httpresponsegone"
p5370
I4462
sS'top_dir'
p5371
I2970
sS'pattern'
p5372
I2395
sS'serialize_headers'
p5373
I4792
sS'boundary'
p5374
I1037
sS"'hour"
p5375
I6520
sS'seen_data'
p5376
I4202
sS"'streaminghttpresponse"
p5377
I4454
sS'final_output'
p5378
I2912
sS'startdocument'
p5379
I3221
sS'm2m_convert'
p5380
I3195
sS'optional'
p5381
I5386
sS'generic_tag_compiler'
p5382
I4882
sS'year_none_value'
p5383
I3692
sS'tkinter'
p5384
I6840
sS"'static_url"
p5385
I682
sS'equal'
p5386
I3642
sS'get_script_name'
p5387
I1176
sS'app_models'
p5388
I2911
sS'm_kwargs'
p5389
I6022
sS"'separators"
p5390
I3163
sS'escapebytes'
p5391
I6774
sS'attributes'
p5392
I5031
sS'strftime'
p5393
I1339
sS'otherwise'
p5394
I178
sS'comment'
p5395
I5343
sS'over_bytes'
p5396
I4527
sS"'num"
p5397
I5001
sS'_moved_attributes'
p5398
I6800
sS'endendtag'
p5399
I6479
sS"'django_cache"
p5400
I247
sS'rjust'
p5401
I5183
sS'makemigrations'
p5402
I2505
sS'json'
p5403
I3109
sS'test_labels'
p5404
I2883
sS'resolve_template'
p5405
I5504
sS'lazyobject'
p5406
I896
sS'define'
p5407
I52
sS'app_list'
p5408
I2005
sS'/models/sql'
p5409
I2935
sS'dictitem'
p5410
I5721
sS'assert'
p5411
I591
sS'get_multi'
p5412
I433
sS'bull'
p5413
I6361
sS'locales'
p5414
I1851
sS'table_name_filter'
p5415
I2112
sS'python_reloader'
p5416
I5684
sS'plain'
p5417
I2735
sS'truncatewords_html'
p5418
I5175
sS'value'
p5419
I113
sS'biggest_number'
p5420
I2550
sS'isolated_context'
p5421
I5457
sS'get_function_globals'
p5422
I6977
sS'urlsafe_base64_decode'
p5423
I6532
sS'manually'
p5424
I2124
sS'num_repl'
p5425
I2180
sS'time_zone'
p5426
I7222
sS'resolver404'
p5427
I3444
sS'tampered'
p5428
I4038
sS"'simplecookie"
p5429
I4446
sS')'
I22
sS'domain_part'
p5430
I3601
sS'00:00:00'
p5431
I4817
sS'com|edu|gov|int|mil|net|org'
p5432
I6373
sS'__version__'
p5433
I3158
sS'time_str'
p5434
I6153
sS'listdir'
p5435
I931
sS'processevent'
p5436
I5633
sS'nullbooleanfield'
p5437
I3854
sS'can_delete'
p5438
I4059
sS'center'
p5439
I5184
sS'keyboardinterrupt'
p5440
I2723
sS"'sql_field"
p5441
I7075
sS'migration_name'
p5442
I2534
sS'str_hidden'
p5443
I3955
sS'position'
p5444
I4539
sS'_request_middleware'
p5445
I1071
sS"'unprocessable"
p5446
I4753
sS'post_syncdb'
p5447
I2950
sS'get_storage_class'
p5448
I968
sS'stored'
p5449
I183
sS'create_bound_method'
p5450
I6969
sS'localize'
p5451
I3765
sS'add'
p5452
I166
sS'git_log'
p5453
I7436
sS"'truncated_text"
p5454
I7114
sS'match'
p5455
I2692
sS'gmt'
p5456
I4818
sS'tests'
p5457
I529
sS'optimizations'
p5458
I2813
sS"'splitdatetimefield"
p5459
I3750
sS'xmlrpc'
p5460
I6881
sS"'urlfield"
p5461
I3744
sS'day_none_value'
p5462
I3694
sS"'length"
p5463
I3845
sS'stringfilter'
p5464
I5147
sS'resolver'
p5465
I1099
sS'insert'
p5466
I313
sS'add_watch'
p5467
I5648
sS'like'
p5468
I521
sS'excluding'
p5469
I6636
sS'_get_image_dimensions'
p5470
I781
sS'templatetagnode'
p5471
I5316
sS'validate_ipv46_address'
p5472
I3605
sS'accessible'
p5473
I963
sS'nocolor_palette'
p5474
I1786
sS"'subclasses"
p5475
I186
sS"'time_input_formats"
p5476
I3823
sS"r'^https"
p5477
I6367
sS'tmp'
p5478
I3025
sS'guid'
p5479
I6241
sS'server_address'
p5480
I3328
sS'dirnames'
p5481
I1857
sS'httpcookieprocessor'
p5482
I6910
sS'loaded_objects_in_fixture'
p5483
I2263
sS'mode'
p5484
I288
sS'_handlers'
p5485
I6085
sS'clear_template'
p5486
I4356
sS"'outbox"
p5487
I1347
sS"'render"
p5488
I1128
sS'supports_microseconds'
p5489
I4382
sS'expiry'
p5490
I361
sS'host'
p5491
I323
sS'0xffff'
p5492
I6572
sS'httpdigestauthhandler'
p5493
I6918
sS'src_data'
p5494
I2322
sS'executable_name'
p5495
I1931
sS'socket'
p5496
I1506
sS'select_template'
p5497
I5081
sS'non_capturing_groups'
p5498
I6747
sS'replace_header'
p5499
I1463
sS"'app_label"
p5500
I1743
sS'aabbcddeeffgghhiijllmmnnooprssttuuwwyyzz'
p5501
I5866
sS'unapply_start'
p5502
I2611
sS'discard'
p5503
I5843
sS'introduced'
p5504
I515
sS'check-format'
p5505
I1820
sS'load_template'
p5506
I5415
sS'functional'
p5507
I406
sS'num_existing'
p5508
I6108
sS'validate_slug'
p5509
I3609
sS'renderer'
p5510
I4417
sS'package_path'
p5511
I6727
sS'include_auto_created'
p5512
I2101
sS'get_str_from_wsgi'
p5513
I1221
sS'ssinode'
p5514
I5308
sS'permitted_methods'
p5515
I4835
sS'months_3'
p5516
I5859
sS'__closure__'
p5517
I6953
sS'1e200'
p5518
I5154
sS'require_all_fields'
p5519
I3879
sS'not_installed_models'
p5520
I2913
sS'keyerror'
p5521
I77
sS'extended'
p5522
I4784
sS"'use_natural_primary_keys"
p5523
I1975
sS'buf'
p5524
I4647
sS'_iterlists'
p5525
I5847
sS'choice_input_class'
p5526
I4407
sS'in_moved_from'
p5527
I5645
sS'wish'
p5528
I2131
sS'j'
I5809
sS'check_1_7_compatibility'
p5529
I563
sS"'nocolor"
p5530
I7069
sS"'csrf_token"
p5531
I663
sS'minutes'
p5532
I7183
sS'removetags'
p5533
I5191
sS'pil'
p5534
I789
sS"'labels"
p5535
I4140
sS'pid'
p5536
I1410
sS"'formatter"
p5537
I6101
sS'mtime'
p5538
I5653
sS'49'
p5539
I4550
sS'inner_text'
p5540
I3258
sS':1'
p5541
I2698
sS'http_not_found'
p5542
I3323
sS'40'
p5543
I587
sS'template_string'
p5544
I4913
sS'_get_foreign_key'
p5545
I4235
sS'_get_page_range'
p5546
I3092
sS'out'
p5547
I1644
sS'satisfiable'
p5548
I4746
sS'__language'
p5549
I7327
sS"'_get_pk_val"
p5550
I4204
sS'c_void_p'
p5551
I812
sS'templateencodingerror'
p5552
I4865
sS'_long_to_bin'
p5553
I5791
sS'saxutils'
p5554
I7445
sS'test_database'
p5555
I2573
sS'readline'
p5556
I1054
sS'mark_for_escaping'
p5557
I4900
sS'_regex_dict'
p5558
I3469
sS'_ipython_pre_100'
p5559
I2747
sS'`unpack_ipv4`'
p5560
I3628
sS'2592000'
p5561
I428
sS'loader_name'
p5562
I5434
sS"'~/"
p5563
I2765
sS'sleep'
p5564
I5674
sS'_dummy_thread'
p5565
I5604
sS'translation_function'
p5566
I7355
sS"'ensure"
p5567
I3635
sS'pprint'
p5568
I4591
sS'umask'
p5569
I948
sS'under'
p5570
I1872
sS'guessed_path'
p5571
I3038
sS'localtime'
p5572
I7216
sS'@'
I423
sS'filter_expression'
p5573
I4948
sS'trans_real'
p5574
I5627
sS"'djangojs"
p5575
I2317
sS'selected_choices'
p5576
I4391
sS'wrapped_main_func'
p5577
I5692
sS'getmro'
p5578
I6034
sS'safe_data'
p5579
I440
sS'isdir'
p5580
I949
sS'__nonzero__'
p5581
I735
sS"'stdout"
p5582
I1703
sS's_template'
p5583
I2978
sS'plural'
p5584
I2467
sS'parse_date'
p5585
I5934
sS'sql_all'
p5586
I2774
sS'timeformat'
p5587
I5874
sS'cmp_fmt'
p5588
I2259
sS'externalreferenceforbidden'
p5589
I3279
sS'attrs'
p5590
I3228
sS'rfcdate'
p5591
I6516
sS'old_setting'
p5592
I5237
sS'argumentparser'
p5593
I1630
sS'issubclass'
p5594
I6121
sS"'minspare"
p5595
I3345
sS'_systemrestart'
p5596
I5689
sS'dictionary'
p5597
I5436
sS'all_locales'
p5598
I1847
sS"'flush"
p5599
I2598
sS'selected'
p5600
I2111
sS'_regex_validator'
p5601
I3833
sS'get_backend_timeout'
p5602
I159
sS'_itervalues'
p5603
I5833
sS'debugs'
p5604
I1721
sS'conditions_nodelists'
p5605
I5297
sS'multipleobjectsreturned'
p5606
I697
sS'path'
p5607
I342
sS'_lazydescr'
p5608
I6792
sS'symlinks'
p5609
I2384
sS"'forbid_multi_line_headers"
p5610
I1269
sS'_is_expired'
p5611
I351
sS'display_url'
p5612
I3026
sS'changed'
p5613
I558
sS'add_fields'
p5614
I4053
sS'django_settings_module'
p5615
I1688
sS'start_transaction_sql'
p5616
I1714
sS'sub_ul_renderer'
p5617
I4413
sS'changes'
p5618
I2511
sS"'parsed"
p5619
I5385
sS'date_key'
p5620
I6210
sS'prints'
p5621
I2772
sS'backout'
p5622
I4971
sS'can_order'
p5623
I4064
sS'get_relations'
p5624
I2140
sS'assertregexpmatches'
p5625
I7024
sS'would'
p5626
I1979
sS'm-'
p5627
I6160
sS'compare_to'
p5628
I5289
sS'print_'
p5629
I6999
sS'object_name'
p5630
I254
sS"'interactive"
p5631
I2056
sS'http_info'
p5632
I3318
sS'importlib_find'
p5633
I6723
sS'security_logger'
p5634
I1140
sS'viewdoesnotexist'
p5635
I704
sS"'stopfuturehandlers"
p5636
I1024
sS'save_new'
p5637
I4188
sS'naive'
p5638
I7232
sS"'decimal_separator"
p5639
I6273
sS'phone'
p5640
I7138
sS'memcache'
p5641
I448
sS'num_loopvars'
p5642
I5265
sS'to_py'
p5643
I4257
sS'date_checks'
p5644
I4198
sS'must'
p5645
I51
sS'year_val'
p5646
I3695
sS'join'
p5647
I381
sS'mb'
p5648
I5223
sS'mo'
p5649
I1814
sS'mn'
p5650
I2806
sS'strerror'
p5651
I3054
sS'dev'
p5652
I7432
sS'install'
p5653
I2052
sS'a-z0-9'
p5654
I3566
sS"'pocket"
p5655
I1774
sS'use_argparse'
p5656
I1542
sS"'extra_context"
p5657
I5456
sS'_new_instance'
p5658
I7416
sS"'day"
p5659
I3676
sS'eexist'
p5660
I377
sS"'_offset_union"
p5661
I838
sS'times'
p5662
I1828
sS'convert_old_style_list'
p5663
I5199
sS'__delslice__'
p5664
I5852
sS'end'
p5665
I3507
sS'sessionmiddleware'
p5666
I571
sS'unordered_list'
p5667
I5197
sS'ancestor'
p5668
I2540
sS'description'
p5669
I624
sS"'invalid_list"
p5670
I3872
sS'ifchangednode'
p5671
I5279
sS'reader_leaves'
p5672
I7038
sS'min_num'
p5673
I4040
sS'dir_name'
p5674
I920
sS'custom_sql'
p5675
I2631
sS"'item"
p5676
I6225
sS"'_download"
p5677
I3031
sS'environ'
p5678
I1174
sS'enter'
p5679
I1738
sS'_update_errors'
p5680
I4159
sS'frontend'
p5681
I2748
sS'over'
p5682
I2347
sS'expects'
p5683
I7231
sS'filesizeformat'
p5684
I5219
sS'sfield'
p5685
I2187
sS'digest'
p5686
I3407
sS'407'
p5687
I4725
sS'406'
p5688
I4723
sS'405'
p5689
I4722
sS'404'
p5690
I1135
sS'403'
p5691
I1139
sS'402'
p5692
I4720
sS'401'
p5693
I4718
sS'kwargs'
p5694
I61
sS"'endwith"
p5695
I5409
sS'409'
p5696
I4729
sS'cls'
p5697
I1012
sS'pulldom'
p5698
I3215
sS'needs_multipart_form'
p5699
I3992
sS'sync_apps'
p5700
I2596
sS'stringformat'
p5701
I5170
sS'convertingtuple'
p5702
I6049
sS"'items"
p5703
I6514
sS'emailinput'
p5704
I3722
sS'checkbox_id'
p5705
I4370
sS'field_notes'
p5706
I2159
sS'get_public_serializer_formats'
p5707
I2008
sS'db_type'
p5708
I1913
sS'get_ns_resolver'
p5709
I3460
sS'hidden_widget'
p5710
I3757
sS'alen'
p5711
I5024
sS'pformat'
p5712
I4592
sS'each'
p5713
I1946
sS'notifier'
p5714
I5638
sS'signing'
p5715
I3409
sS'cgihttpserver'
p5716
I6836
sS"'opt"
p5717
I4146
sS'node_class'
p5718
I5056
sS'striptags'
p5719
I5192
sS'joined'
p5720
I5559
sS"'\\\\u003c"
p5721
I6404
sS"'\\\\u003b"
p5722
I6408
sS"'\\\\u003e"
p5723
I6403
sS"'\\\\u003d"
p5724
I6406
sS'combining'
p5725
I7117
sS'from_digits'
p5726
I5711
sS'parse_number'
p5727
I2549
sS'load_template_source'
p5728
I5417
sS'got'
p5729
I1433
sS'_serializers'
p5730
I3112
sS'non-iterable'
p5731
I4573
sS"'\\\\r"
p5732
I6676
sS'squashmigrations'
p5733
I2801
sS"'\\\\t"
p5734
I7169
sS'test_runner'
p5735
I2853
sS'free'
p5736
I2135
sS"'httpresponsenotmodified"
p5737
I4457
sS'with_metaclass'
p5738
I413
sS'tkinter_dnd'
p5739
I6856
sS"'\\\\n"
p5740
I6675
sS'days'
p5741
I4808
sS'sort_dependencies'
p5742
I2012
sS'filter'
p5743
I1586
sS'variabledoesnotexist'
p5744
I4867
sS'onto'
p5745
I1889
sS'load_command_class'
p5746
I1527
sS"'app_path"
p5747
I3303
sS'already'
p5748
I170
sS'sql_for_pending_references'
p5749
I2630
sS"r'^/"
p5750
I1114
sS'primary'
p5751
I1916
sS'wrapper'
p5752
I5656
sS"'tells"
p5753
I2057
sS'timefield'
p5754
I3210
sS'cc_delim_re'
p5755
I5718
sS"'removes"
p5756
I2041
sS"'cacheddnsname"
p5757
I1260
sS'top'
p5758
I3087
sS'loaders'
p5759
I5433
sS'tok'
p5760
I6578
sS'too'
p5761
I4738
sS'ipv4_unpacked'
p5762
I6563
sS'inotify_init'
p5763
I5609
sS"'runserver"
p5764
I2902
sS'url_patterns'
p5765
I3463
sS'wrapped'
p5766
I6032
sS"'zh-hans"
p5767
I7316
sS'get_signed_cookie'
p5768
I4619
sS'changed_objects'
p5769
I4216
sS'inner_html'
p5770
I4410
sS'tzname'
p5771
I5883
sS'h'
I1342
sS"r'^\\"
p5772
I6055
sS'sql_delete'
p5773
I2775
sS'lbp'
p5774
I5523
sS'get_request_repr'
p5775
I6668
sS"'invalidcachebackenderror"
p5776
I37
sS'val1'
p5777
I5294
sS'next_token'
p5778
I4945
sS'ns_resolver'
p5779
I3462
sS'should_convert'
p5780
I7227
sS"'date_format"
p5781
I3669
sS'-'
I162
sS'flatten_result'
p5782
I6760
sS'parse_accept_lang_header'
p5783
I7370
sS'pkg_name'
p5784
I5488
sS'_boundary'
p5785
I4505
sS'doomed'
p5786
I401
sS'default_timeout'
p5787
I129
sS'glob'
p5788
I326
sS'normcase'
p5789
I876
sS'commanderror'
p5790
I1515
sS'chunk_size'
p5791
I758
sS"'invalid_image"
p5792
I3847
sS'show_migration_list'
p5793
I2575
sS'partition'
p5794
I6337
sS'max_width'
p5795
I5332
sS'pks'
p5796
I1983
sS'/option'
p5797
I4395
sS"'code"
p5798
I715
sS'random'
p5799
I330
sS'colors'
p5800
I7097
sS'our_home_dir'
p5801
I3388
sS'set_signed_cookie'
p5802
I4813
sS'context_separator'
p5803
I7296
sS"'ftps"
p5804
I3577
sS'ftphandler'
p5805
I6923
sS'rss'
p5806
I6215
sS'oct'
p5807
I6495
sS'basehttp'
p5808
I2655
sS'handle_raw_input'
p5809
I1035
sS'_code_'
p5810
I6992
sS'dup2'
p5811
I5824
sS"'name"
p5812
I731
sS'report'
p5813
I4557
sS'full_module_name'
p5814
I6728
sS'to_language'
p5815
I7324
sS'real_name'
p5816
I7262
sS'module_path'
p5817
I6710
sS'base64_hmac'
p5818
I3405
sS'dtdforbidden'
p5819
I3272
sS'mkdtemp'
p5820
I3030
sS'concrete_fields'
p5821
I4118
sS'utctimetuple'
p5822
I5915
sS'num'
p5823
I291
sS'email_mime_base'
p5824
I6834
sS'noinput'
p5825
I2054
sS"'categories"
p5826
I6182
sS'nud'
p5827
I5518
sS'_ipv6'
p5828
I2696
sS'_ipv4'
p5829
I2695
sS"'temporaryfileuploadhandler"
p5830
I1021
sS'_func_globals'
p5831
I6958
sS'urllib'
p5832
I897
sS"'target"
p5833
I6123
sS'366'
p5834
I5923
sS'unixfrom'
p5835
I1444
sS'365'
p5836
I5924
sS"r'^www\\"
p5837
I6371
sS'//www'
p5838
I3355
sS'outputwrapper'
p5839
I1643
sS"'xx"
p5840
I7173
sS'hard_coded_bullets_re'
p5841
I6390
sS'npgettext_lazy:1c'
p5842
I2339
sS'input_time_formats'
p5843
I3893
sS'kwarg_format'
p5844
I5045
sS'text_kwargs'
p5845
I3527
sS'rfind'
p5846
I4534
sS'merging'
p5847
I2546
sS'get_supported_language_variant'
p5848
I7322
sS"'plain"
p5849
I1470
sS'unsupportedoperation'
p5850
I727
sS"'__module__"
p5851
I3537
sS"'multiplechoicefield"
p5852
I3746
sS'namedtemporaryfile'
p5853
I986
sS'w_ok'
p5854
I1335
sS'been'
p5855
I634
sS'maxsize'
p5856
I1532
sS'expected'
p5857
I513
sS's_directory'
p5858
I2980
sS'uncommon'
p5859
I3003
sS"'posix"
p5860
I5813
sS'catch'
p5861
I6596
sS'non-integer'
p5862
I6530
sS'teapot'
p5863
I4751
sS'safemimetext'
p5864
I1254
sS'decimal_places'
p5865
I2204
sS'verbose_name_plural'
p5866
I252
sS'n'
I2591
sS'npgettext'
p5867
I7267
sS'deps'
p5868
I2025
sS'get_migration'
p5869
I2535
sS"'table_name"
p5870
I1883
sS'build_opener'
p5871
I6903
sS'*context\\s+'
p5872
I7376
sS'constant_arg'
p5873
I4998
sS'inline_re'
p5874
I7377
sS'smart_str'
p5875
I6143
sS'httprequest'
p5876
I1173
sS'containing'
p5877
I2782
sS"'skipfile"
p5878
I1019
sS'fnmatchcase'
p5879
I2445
sS'emptypage'
p5880
I3071
sS'several'
p5881
I2406
sS"'migrate_failure"
p5882
I7089
sS'sub_pattern'
p5883
I3502
sS'file_move_safe'
p5884
I335
sS'colorchooser'
p5885
I6861
sS'validate_name'
p5886
I2827
sS'format_output'
p5887
I4426
sS'characters'
p5888
I223
sS'configure_logging'
p5889
I6655
sS'cycle'
p5890
I5232
sS'extra_forms'
p5891
I4054
sS'providing_args'
p5892
I3394
sS'simple_email_re'
p5893
I6375
sS'cache_alias'
p5894
I1894
sS'trim_url_limit'
p5895
I5179
sS'initial_extra'
p5896
I4175
sS"'missing"
p5897
I3838
sS"'with"
p5898
I2870
sS'get_serializer'
p5899
I2009
sS'request_repr'
p5900
I6667
sS"'_0"
p5901
I4421
sS"'multivaluefield"
p5902
I3748
sS'init_path'
p5903
I2526
sS"'vary"
p5904
I5742
sS'has_leading_dir'
p5905
I5586
sS'elt'
p5906
I4659
sS'systemexit'
p5907
I1144
sS'boolean_check'
p5908
I4383
sS"'cleaned_data"
p5909
I4057
sS'ignore_no_migrations'
p5910
I2496
sS"'__"
p5911
I2184
sS'59'
p5912
I5896
sS'50'
p5913
I588
sS"'basemodelformset"
p5914
I4100
sS'52'
p5915
I5922
sS'specific'
p5916
I1557
sS'renamed'
p5917
I359
sS'6/ref/models/fields/'
p5918
I561
sS'any*'
p5919
I5545
sS'any+'
p5920
I5544
sS"'simpleuploadedfile"
p5921
I992
sS"'cookies"
p5922
I4799
sS'wrapping_punctuation'
p5923
I6354
sS'technical_500_response'
p5924
I1143
sS'post_data'
p5925
I4636
sS'53'
p5926
I5921
sS'test_method'
p5927
I2859
sS'saved_locale'
p5928
I1704
sS'cnt'
p5929
I6744
sS'urlopener'
p5930
I6928
sS'djangoruntimewarning'
p5931
I128
sS"'typedchoicefield"
p5932
I3755
sS'429'
p5933
I4761
sS'428'
p5934
I4760
sS'dictvalue'
p5935
I5722
sS"'form"
p5936
I3907
sS'423'
p5937
I4754
sS'422'
p5938
I4752
sS'424'
p5939
I4756
sS"'fork"
p5940
I3340
sS'426'
p5941
I4758
sS'core'
p5942
I12
sS'process_response'
p5943
I1089
sS"'script_name"
p5944
I1181
sS'urlconf_repr'
p5945
I3489
sS'lineno_comment_map'
p5946
I7392
sS'build_request_repr'
p5947
I4435
sS'permitted'
p5948
I5359
sS'ensure'
p5949
I527
sS'curry'
p5950
I6283
sS"'pidfile"
p5951
I3343
sS"'httpresponseservererror"
p5952
I4463
sS"'determine"
p5953
I7273
sS'splitext'
p5954
I924
sS'module_six_moves_urllib_response'
p5955
I6932
sS'_callback_str'
p5956
I3477
sS"'\\\\u005c"
p5957
I6400
sS'escapeunicode'
p5958
I6777
sS'popen_wrapper'
p5959
I1803
sS'git'
p5960
I1843
sS'additional_headers'
p5961
I5745
sS'transform'
p5962
I5551
sS'stuck'
p5963
I4553
sS'compress_string'
p5964
I7156
sS'_cacheinfo'
p5965
I6680
sS'filterfalse'
p5966
I6809
sS'rss201rev2feed'
p5967
I6232
sS'decimaldigits-opt'
p5968
I6622
sS'head'
p5969
I7442
sS'medium'
p5970
I4323
sS'migrate_heading'
p5971
I2519
sS'attempted'
p5972
I960
sS'_curried'
p5973
I6285
sS"r'\\"
p5974
I3571
sS"r'^"
p5975
I2303
sS'mapped_tokens'
p5976
I5527
sS'itertools_cycle'
p5977
I5233
sS'tail_ext'
p5978
I5581
sS'command_dir'
p5979
I1523
sS'scrolledtext'
p5980
I6846
sS"'counter0"
p5981
I5269
sS'removed'
p5982
I576
sS'show_hidden_initial'
p5983
I3764
sS'attr'
p5984
I594
sS"'info"
p5985
I481
sS"'response"
p5986
I6944
sS"'message-id"
p5987
I1483
sS'compiled_regex'
p5988
I3470
sS'trim'
p5989
I7395
sS"'max_age"
p5990
I5725
sS'escape'
p5991
I4263
sS"'socket"
p5992
I3338
sS"r'\\1"
p5993
I5873
sS'parse_http_date_safe'
p5994
I6522
sS'check'
p5995
I615
sS'constructed'
p5996
I4914
sS'__reduce_ex__'
p5997
I6318
sS'tix'
p5998
I6850
sS'nm'
p5999
I1438
sS'no'
p6000
I1735
sS'author_email'
p6001
I6164
sS'when'
p6002
I1959
sS'ne'
p6003
I6323
sS"'changed"
p6004
I4166
sS'setting'
p6005
I581
sS'ns'
p6006
I3546
sS'node'
p6007
I2640
sS"'content-transfer-encoding"
p6008
I1454
sS'creation_counter'
p6009
I3761
sS'get_function_code'
p6010
I6975
sS'color_settings'
p6011
I1781
sS"r'\\d"
p6012
I3570
sS'sql'
p6013
I1882
sS'basehttpserver'
p6014
I6835
sS'eaddrnotavail'
p6015
I2718
sS'flushed'
p6016
I2085
sS"r'\\w"
p6017
I2182
sS'get_bytes_from_wsgi'
p6018
I1210
sS'expects_localtime'
p6019
I5212
sS'__args'
p6020
I6294
sS'longer'
p6021
I214
sS'__globals__'
p6022
I6959
sS"r'\\\\"
p6023
I5868
sS'unicodedecodeerror'
p6024
I1232
sS're_chars'
p6025
I7103
sS'iterator'
p6026
I2019
sS'start_response'
p6027
I1230
sS'openerdirector'
p6028
I6907
sS'alternatives'
p6029
I1503
sS"'get_language_from_request"
p6030
I7235
sS"'prefork"
p6031
I3362
sS'izip_longest'
p6032
I6818
sS'row'
p6033
I273
sS'style_func'
p6034
I1645
sS'memcache_max_key_length'
p6035
I130
sS'addrport'
p6036
I2889
sS'day_of_year'
p6037
I5920
sS'environment'
p6038
I1689
sS'exc_value'
p6039
I771
sS'decorator_from_middleware'
p6040
I6019
sS'denied'
p6041
I961
sS"'ssi"
p6042
I5384
sS'selectdatewidget'
p6043
I3655
sS'nesting'
p6044
I6763
sS'get_major_version'
p6045
I7428
sS'level'
p6046
I589
sS'all_valid'
p6047
I4090
sS'codeset'
p6048
I7337
sS'language_code_prefix_re'
p6049
I7311
sS'post`'
p6050
I1204
sS'contextmanager'
p6051
I7039
sS'obsolete'
p6052
I2410
sS'firstofnode'
p6053
I5251
sS'commondialog'
p6054
I6864
sS'^\\w\\s-'
p6055
I7177
sS"'level"
p6056
I595
sS'port'
p6057
I1352
sS'autocomplete'
p6058
I1575
sS'tkcommondialog'
p6059
I6863
sS'formatting'
p6060
I5230
sS'do_ifequal'
p6061
I5368
sS'deleted'
p6062
I2897
sS"'openbrace"
p6063
I5321
sS'migrated_apps'
p6064
I2579
sS'limitedstream'
p6065
I1163
sS'daemon_kwargs'
p6066
I3384
sS"'http_info"
p6067
I7079
sS"'midnight"
p6068
I5889
sS'groups'
p6069
I2697
sS"'handler"
p6070
I3518
sS'['
I32
sS'\\u0080-\\uffff'
p6071
I7165
sS'latest_date'
p6072
I6208
sS"'session"
p6073
I7365
sS'_urlconf_module'
p6074
I3483
sS'len_values'
p6075
I5264
sS'renamed_method'
p6076
I6035
sS'def'
p6077
I57
sS'_info'
p6078
I7341
sS'modifying'
p6079
I2778
sS'_delete'
p6080
I367
sS"'mode"
p6081
I732
sS'new_migration'
p6082
I2552
sS'tkcolorchooser'
p6083
I6860
sS'rindex'
p6084
I3465
sS'restype'
p6085
I845
sS'prec'
p6086
I5164
sS"'\\\\u2028"
p6087
I6410
sS"'\\\\u2029"
p6088
I6412
sS'handles'
p6089
I2206
sS'handler'
p6090
I2715
sS's_len'
p6091
I7120
sS'_get_val_from_obj'
p6092
I3181
sS'msg'
p6093
I590
sS"'application/json"
p6094
I4840
sS'prev'
p6095
I6701
sS'd\\n'
p6096
I3391
sS'today'
p6097
I3687
sS'callable'
p6098
I138
sS'sessions'
p6099
I570
sS'outputs'
p6100
I2105
sS'ipv4_address'
p6101
I6569
sS"'package"
p6102
I6550
sS'accept'
p6103
I1767
sS"'dry_run"
p6104
I2482
sS'save_existing'
p6105
I4189
sS'known_models'
p6106
I2137
sS'modified'
p6107
I1981
sS'field_params'
p6108
I2158
sS'pickle'
p6109
I234
sS'table_names'
p6110
I1897
sS'corrupted'
p6111
I3849
sS'stream'
p6112
I1164
sS'simplehttpserver'
p6113
I6837
sS'set_multi'
p6114
I441
sS'get_method_self'
p6115
I6973
sS'att_name'
p6116
I2149
sS'filter_re'
p6117
I4860
sS"'npgettext"
p6118
I7254
sS'1'
I157
sS'`none`'
p6119
I3978
sS'\\w\\'
p6120
I5005
sS'week_number'
p6121
I5918
sS"'value"
p6122
I1905
sS'\\w*'
p6123
I3017
sS'\\w+'
p6124
I4996
sS"'resent-from"
p6125
I1424
sS'clone'
p6126
I5553
sS'regexvalidator'
p6127
I3558
sS"'nodelist_empty"
p6128
I5254
sS'filehandler'
p6129
I6922
sS"'__all__"
p6130
I708
sS"'path_info"
p6131
I1180
sS'im_func'
p6132
I6960
sS'dstoffset'
p6133
I7210
sS"'_coerce"
p6134
I3779
sS'use_tz'
p6135
I296
sS'cmatch'
p6136
I7410
sS'exclusive'
p6137
I1363
sS'modelmultiplechoicefield'
p6138
I4255
sS'maxlinelen'
p6139
I4797
sS'quote_etag'
p6140
I6538
sS'iteritems'
p6141
I1562
sS'ifnode'
p6142
I5296
sS'get_unique_error_message'
p6143
I4205
sS"'isolated_context"
p6144
I5458
sS'html_gunk_re'
p6145
I6380
sS'platform'
p6146
I1772
sS"'light"
p6147
I7073
sS'sub_widgets'
p6148
I4411
sS'random_module'
p6149
I5127
sS'happened'
p6150
I2341
sS'qualified'
p6151
I3453
sS'multivaluedict'
p6152
I3432
sS'tkinter_dialog'
p6153
I6841
sS'_meth_self'
p6154
I6951
sS'execute'
p6155
I268
sS'name'
p6156
I111
sS'urllib_request'
p6157
I6931
sS"'endautoescape"
p6158
I5342
sS'possibilities'
p6159
I3531
sS'synchronize'
p6160
I2564
sS'sub_match_dict'
p6161
I3512
sS"'127"
p6162
I2699
sS"'reset"
p6163
I4691
sS"'out_log"
p6164
I3385
sS'bytes_to_text'
p6165
I4653
sS'execute_from_command_line'
p6166
I1627
sS"'test"
p6167
I1599
sS'moduletype'
p6168
I6799
sS'es-419'
p6169
I7303
sS'modelform'
p6170
I4147
sS'eventhandler'
p6171
I5632
sS'^\\s*plural'
p6172
I7385
sS'performing'
p6173
I2707
sS'get_valid_filename'
p6174
I901
sS'orig_file'
p6175
I2320
sS'real_datetime'
p6176
I5981
sS'_drive_re'
p6177
I2957
sS"'ugettext"
p6178
I7245
sS'meta_line'
p6179
I2171
sS'runfastcgi'
p6180
I2653
sS'forms_to_delete'
p6181
I4195
sS'place'
p6182
I2819
sS'middleware_classes'
p6183
I507
sS'charfield'
p6184
I1899
sS'qn'
p6185
I1911
sS'datetime_re'
p6186
I5931
sS'1000'
p6187
I4031
sS'origin'
p6188
I4872
sS"'abcdefghijklmnopqrstuvwxyz0123456789"
p6189
I2833
sS'digestmod'
p6190
I5782
sS'djangounicodedecodeerror'
p6191
I6135
sS'defaulttags'
p6192
I5098
sS'squashed'
p6193
I2644
sS'given'
p6194
I172
sS'validate_ipv4_address'
p6195
I3620
sS'cmd_options'
p6196
I1700
sS"'microsecond"
p6197
I5937
sS"'_namedcyclenodes"
p6198
I5346
sS'returns'
p6199
I180
sS"r'\\s*"
p6200
I5719
sS'squashes'
p6201
I2794
sS'po_path'
p6202
I1862
sS'imagefield'
p6203
I3846
sS'self_closing'
p6204
I7134
sS'supply'
p6205
I2510
sS"'baseform"
p6206
I3906
sS'used_column_names'
p6207
I2143
sS'copy'
p6208
I88
sS'specify'
p6209
I1990
sS"'def"
p6210
I5547
sS'make_bytes'
p6211
I4819
sS"'dec"
p6212
I5975
sS'require'
p6213
I6555
sS"'dev"
p6214
I2983
sS'r'
I225
sS'format_key'
p6215
I4381
sS'_active'
p6216
I5630
sS'^\\s*endblocktrans'
p6217
I7383
sS'truncating'
p6218
I7112
sS'and'
p6219
I278
sS'all_issues'
p6220
I1719
sS'utf_8'
p6221
I1160
sS'copyreg'
p6222
I6282
sS'any'
p6223
I1638
sS'memcachedcache'
p6224
I447
sS'salted_hmac'
p6225
I3397
sS'temporaryuploadedfile'
p6226
I1003
sS'cacheclass'
p6227
I321
sS"'root"
p6228
I6092
sS'is_library_missing'
p6229
I5088
sS'indexbytes'
p6230
I6985
sS'splithiddendatetimewidget'
p6231
I3734
sS'sure'
p6232
I1748
sS'multiple'
p6233
I1827
sS"'emailmultialternatives"
p6234
I1263
sS"'require_debug_true"
p6235
I6650
sS'hnum'
p6236
I6614
sS"'decimalfield"
p6237
I2202
sS'bf_errors'
p6238
I3946
sS'html_entities'
p6239
I6827
sS'widget_attrs'
p6240
I3769
sS'urlcleanup'
p6241
I6927
sS'//docs'
p6242
I536
sS"'revcounter0"
p6243
I5272
sS'empty_block_tag'
p6244
I4953
sS'timegm'
p6245
I5914
sS'filefield'
p6246
I3835
sS'httpresponsenotallowed'
p6247
I4442
sS"'opts"
p6248
I7090
sS"'gateway"
p6249
I4774
sS'written'
p6250
I1992
sS'explicitly'
p6251
I4173
sS'_called_from_command_line'
p6252
I1641
sS'light_palette'
p6253
I7072
sS'decimalfield'
p6254
I3801
sS'reprlib'
p6255
I6839
sS'include_html'
p6256
I6661
sS"'_data"
p6257
I5846
sS"'maxlength"
p6258
I3786
sS'ssi'
p6259
I5383
sS'complex_filter'
p6260
I4155
sS"'empty_value"
p6261
I3870
sS"'language_code"
p6262
I674
sS"'bindaddress"
p6263
I3376
sS'fileno'
p6264
I805
sS'migration_string'
p6265
I2528
sS'orphans'
p6266
I3075
sS'constant_re'
p6267
I7386
sS'save_instance'
p6268
I4110
sS'ignored'
p6269
I2972
sS'memodict'
p6270
I7417
sS'connections'
p6271
I236
sS"'sqlall"
p6272
I1594
sS'endtagfind'
p6273
I6480
sS'deserializationerror'
p6274
I3130
sS'empty_dict'
p6275
I6082
sS'localpart'
p6276
I1439
sS'__all__'
p6277
I30
sS'makedirs'
p6278
I375
sS'\\\\u'
p6279
I7168
sS'rawpostdataexception'
p6280
I4433
sS'getattr'
p6281
I107
sS'\\\\n'
p6282
I2305
sS'streamingbuffer'
p6283
I7161
sS"'sql"
p6284
I1593
sS'cookie_value'
p6285
I4620
sS'receivers'
p6286
I620
sS'printdir'
p6287
I5599
sS"'_current_app"
p6288
I5515
sS'child_loggers'
p6289
I6106
sS'whole_digits'
p6290
I3816
sS'copy_plural_forms'
p6291
I2457
sS"'primary_keys"
p6292
I1984
sS'_cull'
p6293
I299
sS'windll'
p6294
I817
sS'quiet'
p6295
I7440
sS'\\\\/'
p6296
I7170
sS'_key_to_file'
p6297
I346
sS'color'
p6298
I1518
sS'pot'
p6299
I2344
sS'pos'
p6300
I744
sS'pop'
p6301
I84
sS'6/'
p6302
I539
sS'60'
p6303
I5888
sS'61'
p6304
I3568
sS"'languages"
p6305
I672
sS'63'
p6306
I6789
sS'64'
p6307
I730
sS'iterations'
p6308
I5796
sS"'regexfield"
p6309
I3740
sS'db_index'
p6310
I1908
sS"'secret_key"
p6311
I2835
sS'filter_function'
p6312
I5066
sS'508'
p6313
I4781
sS'506'
p6314
I4776
sS'507'
p6315
I4779
sS'504'
p6316
I4773
sS'505'
p6317
I4775
sS'httpd_cls'
p6318
I3329
sS'valueerror'
p6319
I144
sS'500'
p6320
I1148
sS'501'
p6321
I4766
sS'engine'
p6322
I2909
sS'inmemoryuploadedfile'
p6323
I1006
sS"'post"
p6324
I4642
sS'final_attrs'
p6325
I4339
sS"'location"
p6326
I85
sS'tkinter_filedialog'
p6327
I6843
sS'_post_render_callbacks'
p6328
I5500
sS'__eq__'
p6329
I119
sS'values_list'
p6330
I4124
sS'protocols'
p6331
I4680
sS'wrapper_assignments'
p6332
I6004
sS'case'
p6333
I6595
sS"'no_startup"
p6334
I2737
sS'lockfileex'
p6335
I843
sS'allow_cascade'
p6336
I2069
sS'delete_multi'
p6337
I444
sS'get_parent_list'
p6338
I4239
sS'_create_alternatives'
p6339
I1504
sS'invalidoperation'
p6340
I5128
sS'show_value'
p6341
I3637
sS'year_days'
p6342
I5895
sS'make_template_fragment_key'
p6343
I458
sS'parse'
p6344
I898
sS'templateifparser'
p6345
I5375
sS'dumper'
p6346
I3211
sS'unifunc'
p6347
I5548
sS'__delattr__'
p6348
I115
sS"'endifchanged"
p6349
I5382
sS'truncatechars_html'
p6350
I5172
sS'base_fields'
p6351
I3915
sS'html'
p6352
I2376
sS'email_backend'
p6353
I1279
sS'trailing_punctuation'
p6354
I6352
sS'status'
p6355
I1236
sS'_reverse_dict'
p6356
I3484
sS"'dj"
p6357
I3675
sS'modelfield'
p6358
I4131
sS'temporaryfileuploadhandler'
p6359
I1045
sS"'do"
p6360
I2799
sS'absolute_max'
p6361
I4043
sS'cookies_override'
p6362
I4667
sS'block_name'
p6363
I5460
sS'without'
p6364
I1870
sS"'than"
p6365
I5470
sS'sql_statements'
p6366
I2787
sS'model'
p6367
I551
sS"'commas"
p6368
I2382
sS'__getinitargs__'
p6369
I7420
sS'nodelist'
p6370
I4870
sS'truncated_text'
p6371
I7113
sS"'hint"
p6372
I597
sS'absolute_import'
p6373
I3154
sS'full_clean'
p6374
I3932
sS'kill'
p6375
I5687
sS'unicode'
p6376
I3471
sS'msvcrt'
p6377
I808
sS'overlapped'
p6378
I837
sS'hint'
p6379
I514
sS'phone2numeric_filter'
p6380
I5229
sS'except'
p6381
I76
sS'waiting_readers'
p6382
I7034
sS'\\/'
p6383
I6387
sS'\\-'
p6384
I3565
sS'next-to-last'
p6385
I5394
sS'timesince'
p6386
I5142
sS'styles'
p6387
I7096
sS'settings_dict'
p6388
I1096
sS'arg_sep'
p6389
I4997
sS'app_dir'
p6390
I2286
sS'conditional_escape'
p6391
I3903
sS'\\\\'
p6392
I4479
sS'addhandler'
p6393
I2881
sS'is_a_tty'
p6394
I1778
sS'accepted'
p6395
I2876
sS'\\w'
p6396
I6369
sS'\\d'
p6397
I2661
sS'\\b'
p6398
I6606
sS'\\n'
p6399
I1573
sS'get_date_error_message'
p6400
I4210
sS'leaf_nodes'
p6401
I2585
sS'migrationoptimizer'
p6402
I2793
sS'textnode'
p6403
I4874
sS'_send'
p6404
I1384
sS'target_dir'
p6405
I2991
sS'mixed_subtype'
p6406
I1471
sS'tcsetattr'
p6407
I5671
sS'provided'
p6408
I1687
sS'content_subtype'
p6409
I1469
sS'literals'
p6410
I6579
sS"'cycle"
p6411
I5345
sS'new_obj'
p6412
I5018
sS'link_target_attribute_re'
p6413
I6378
sS'msguniq\\n'
p6414
I2441
sS'af_inet6'
p6415
I3309
sS'print_help'
p6416
I1624
sS'inspect'
p6417
I4892
sS'communicate'
p6418
I3057
sS'urllib2'
p6419
I6896
sS"'msg"
p6420
I596
sS'etag_str'
p6421
I6534
sS'\\\\054'
p6422
I4478
sS'found'
p6423
I199
sS"'checkboxinput"
p6424
I4300
sS'touch_import'
p6425
I5536
sS'_'
I434
sS"'the"
p6426
I1682
sS'on'
p6427
I1556
sS'ok'
p6428
I2610
sS'forwards_plan'
p6429
I2537
sS'of'
p6430
I66
sS're_words'
p6431
I7100
sS'formatters'
p6432
I6098
sS"'thu"
p6433
I4815
sS'mutually'
p6434
I1362
sS'all_files'
p6435
I2449
sS'windowserror'
p6436
I5556
sS'os'
p6437
I329
sS'or'
p6438
I220
sS'op'
p6439
I5525
sS"'max_digits"
p6440
I2203
sS'i_item'
p6441
I6772
sS'__name'
p6442
I7206
sS'determine'
p6443
I749
sS"r'\\s"
p6444
I7372
sS'fdopen'
p6445
I956
sS'there'
p6446
I3802
sS'strict'
p6447
I6422
sS'pretty-printing'
p6448
I1960
sS'orderedset'
p6449
I5841
sS'new_environ'
p6450
I5679
sS'tupl'
p6451
I5162
sS"r'localhost|"
p6452
I3569
sS'jul'
p6453
I6493
sS'ngettext'
p6454
I7265
sS'compile_function'
p6455
I5061
sS"'errlog"
p6456
I3349
sS'1024'
p6457
I795
sS'applying'
p6458
I2606
sS'tags_available'
p6459
I654
sS'error_prefix'
p6460
I6713
sS'build_absolute_uri'
p6461
I4621
sS'_actions'
p6462
I1604
sS'nofollow_attr'
p6463
I6445
sS"'templatize"
p6464
I7240
sS"'python_2_unicode_compatible"
p6465
I5555
sS'variable_tag_start'
p6466
I4859
sS'_new_gnu_trans'
p6467
I7334
sS"'rawpostdataexception"
p6468
I4450
sS'logging_config_func'
p6469
I6660
sS'gettext'
p6470
I1816
sS'5'
I524
sS'blocknode'
p6471
I5447
sS"'resent-bcc"
p6472
I1428
sS'requested'
p6473
I2076
sS'separate'
p6474
I2381
sS'streaminghttpresponse'
p6475
I4436
sS'validate_email'
p6476
I3606
sS'includes'
p6477
I5427
sS"'date_field"
p6478
I4213
sS'included'
p6479
I3514
sS'omittable'
p6480
I1933
sS'get_wsgi_application'
p6481
I3295
sS'odds'
p6482
I5771
sS'/select'
p6483
I4389
sS'directory'
p6484
I379
sS'base_directory'
p6485
I2979
sS"'stopupload"
p6486
I1018
sS'bytearray'
p6487
I7021
sS'all'
p6488
I106
sS'atom1feed'
p6489
I6242
sS"'startproject"
p6490
I1622
sS"'checkmessage"
p6491
I479
sS'executing'
p6492
I3056
sS"'path"
p6493
I1326
sS'validate_max'
p6494
I4074
sS'has_new_option'
p6495
I1654
sS'cache_middleware_seconds'
p6496
I5734
sS'mktime'
p6497
I5916
sS'program'
p6498
I1817
sS"'use_ipv6"
p6499
I2680
sS'truncator'
p6500
I5139
sS"'aug"
p6501
I5971
sS'immutable'
p6502
I4652
sS'_get_size_from_underlying_file'
p6503
I739
sS'subcommand'
p6504
I1555
sS'print'
p6505
I1585
sS'sub_stream'
p6506
I4585
sS'urlquote_plus'
p6507
I6509
sS"'parentloop"
p6508
I5268
sS'xmlutils'
p6509
I3212
sS'utime'
p6510
I867
sS'templatetag_module'
p6511
I5095
sS'new_params'
p6512
I2200
sS'list'
p6513
I616
sS'timeuntil_filter'
p6514
I5214
sS's_name'
p6515
I2976
sS'time_re'
p6516
I5930
sS'empty_variable'
p6517
I4947
sS"'id_"
p6518
I3711
sS'middleware_path'
p6519
I1078
sS'choices'
p6520
I1674
sS'month_val'
p6521
I3696
sS"'__len__"
p6522
I5263
sS'will'
p6523
I174
sS'what'
p6524
I2485
sS'imported'
p6525
I6795
sS'sub'
p6526
I2116
sS'sum'
p6527
I4071
sS'ask_merge'
p6528
I2547
sS'importer'
p6529
I6065
sS'version'
p6530
I134
sS'memcached'
p6531
I213
sS'tags'
p6532
I473
sS'codebase'
p6533
I2823
sS'var_chars'
p6534
I4992
sS'compressed'
p6535
I3418
sS"r'\\r\\n|\\r"
p6536
I7107
sS"'clear_checkbox_name"
p6537
I4371
sS'split_contents'
p6538
I4928
sS"'ungettext_lazy"
p6539
I7251
sS'empty_values'
p6540
I3557
sS'_make_decorator'
p6541
I6020
sS'validate_domain_part'
p6542
I3602
sS'options'
p6543
I146
sS'serialization_formats'
p6544
I2235
sS'members'
p6545
I5589
sS'requestcontext'
p6546
I4871
sS'_get_timezone_name'
p6547
I7224
sS'db_manager'
p6548
I3151
sS'weekdays_abbr'
p6549
I5863
sS'run_tests'
p6550
I2886
sS'basecontext'
p6551
I4895
sS"'requestcontext"
p6552
I4890
sS"'httpresponsebadrequest"
p6553
I4458
sS'current_number'
p6554
I4552
sS'block_size'
p6555
I5804
sS'1900'
p6556
I5990
sS'tkinter_scrolledtext'
p6557
I6845
sS'_lazy_proxy_unpickle'
p6558
I6298
sS'proceed'
p6559
I2809
sS"'cvs"
p6560
I2400
sS'immutablelist'
p6561
I4593
sS'bytesgenerator'
p6562
I1450
sS'rss_attributes'
p6563
I6216
sS'permanently'
p6564
I4704
sS'flat'
p6565
I4125
sS"'pm"
p6566
I5878
sS'abspath'
p6567
I343
sS'requiredebugtrue'
p6568
I6651
sS"'localtime"
p6569
I7199
sS'flag'
p6570
I5351
sS'locmemcache'
p6571
I391
sS'known'
p6572
I2290
sS'_set_choices'
p6573
I3861
sS'v'
I438
sS"'debugs"
p6574
I1728
sS"'meta"
p6575
I4144
sS'_encoding'
p6576
I1213
sS'_deleted_form_indexes'
p6577
I4061
sS'coerce'
p6578
I3867
sS'initial_prefixed_name'
p6579
I3990
sS'source_error'
p6580
I5121
sS"'fcgi"
p6581
I3336
sS"'conf"
p6582
I1839
sS'models_module'
p6583
I1756
sS'endtoken'
p6584
I5526
sS'recursive'
p6585
I3885
sS'rather'
p6586
I2786
sS"'__prefix__"
p6587
I4056
sS"'select"
p6588
I3857
sS"'media_url"
p6589
I685
sS"'field_name"
p6590
I3953
sS'watchmanager'
p6591
I5637
sS'catalog'
p6592
I7353
sS're_formatchars'
p6593
I5865
sS'capitalize'
p6594
I3909
sS"'warning"
p6595
I482
sS"'installs"
p6596
I2216
sS'height'
p6597
I784
sS'callback'
p6598
I1101
sS'ifilterfalse'
p6599
I6810
sS'filter_raw_string'
p6600
I4878
sS'removedinnextversionwarning'
p6601
I6027
sS'\\d\\'
p6602
I5003
sS'old_mod'
p6603
I6802
sS'html_initial_name'
p6604
I3994
sS"'unique_id_is_permalink"
p6605
I6198
sS'smallcaps'
p6606
I6388
sS'disabled'
p6607
I6111
sS'subnode'
p6608
I4916
sS'style'
p6609
I1564
sS'/~'
p6610
I6148
sS'comment_re'
p6611
I2927
sS'/|'
p6612
I7313
sS"'public"
p6613
I5727
sS"'empty"
p6614
I2493
sS'alter'
p6615
I4637
sS'baseconfigurator'
p6616
I6050
sS'return'
p6617
I74
sS'_subtype'
p6618
I1465
sS'urlpatterns'
p6619
I3513
sS'as_widget'
p6620
I3996
sS'filedialog'
p6621
I6844
sS"'fg"
p6622
I7065
sS'instructions'
p6623
I7095
sS'_meta'
p6624
I261
sS'result_args'
p6625
I6767
sS'_findall'
p6626
I5986
sS"'get_language_bidi"
p6627
I7237
sS'table_name_converter'
p6628
I2620
sS"'switching"
p6629
I4679
sS'weight'
p6630
I495
sS'fixture'
p6631
I1945
sS'get_osfhandle'
p6632
I851
sS'isfile'
p6633
I2527
sS'_start_relational_field'
p6634
I3232
sS"'\\s*\\n\\s*"
p6635
I7290
sS"'input_text"
p6636
I4365
sS'etag'
p6637
I6539
sS'lineno'
p6638
I4926
sS'interactivemigrationquestioner'
p6639
I2477
sS'attrfind'
p6640
I6469
sS'_ordering'
p6641
I4067
sS"'initial_forms"
p6642
I4021
sS'benjamin'
p6643
I6783
sS'opfunc'
p6644
I6347
sS'cookie'
p6645
I4431
sS'\\s*'
p6646
I2306
sS'\\s+'
p6647
I3574
sS'request_queue_size'
p6648
I3306
sS'_pk_field'
p6649
I4221
sS'thread'
p6650
I3374
sS"'use_base_manager"
p6651
I1977
sS"'black"
p6652
I7043
sS'get_all_field_names'
p6653
I3191
sS'as_p'
p6654
I3971
sS'feed'
p6655
I796
sS'tkinter_ttk'
p6656
I6851
sS'feel'
p6657
I2134
sS'add_post_render_callback'
p6658
I5507
sS'helptext'
p6659
I3966
sS'construct'
p6660
I4113
sS'path_importer_cache'
p6661
I6733
sS'blank'
p6662
I4158
sS'get_format'
p6663
I3664
sS'find_loader'
p6664
I6724
sS'script'
p6665
I1841
sS'leading'
p6666
I5593
sS'interact'
p6667
I2770
sS'comma'
p6668
I1987
sS'__dir__'
p6669
I6321
sS'passed'
p6670
I4572
sS"'secure"
p6671
I4811
sS'http_success'
p6672
I3317
sS'store'
p6673
I2453
sS'//'
p6674
I318
sS'option'
p6675
I1609
sS'_done'
p6676
I4562
sS'ilmsu'
p6677
I6754
sS"'silent_variable_failure"
p6678
I5036
sS'\\\\073'
p6679
I4471
sS"'badheadererror"
p6680
I1268
sS'start_index'
p6681
I3104
sS'kind'
p6682
I2060
sS'-a-za-z0-9_'
p6683
I3608
sS'hex_format_string'
p6684
I5792
sS"'too_many_forms"
p6685
I4076
sS'created_models'
p6686
I2595
sS"'default_attachment_mime_type"
p6687
I1266
sS'_changed_data'
p6688
I3929
sS'bad_cookies'
p6689
I4481
sS'datastructures'
p6690
I1156
sS'index_sql'
p6691
I2633
sS'file_name'
p6692
I921
sS'httpredirecthandler'
p6693
I6909
sS'cleaned'
p6694
I3639
sS'configparser'
p6695
I6819
sS'basedatabasecache'
p6696
I258
sS'seen_models'
p6697
I2614
sS'humanize'
p6698
I2264
sS'datetimebaseinput'
p6699
I4380
sS'notset'
p6700
I6109
sS'added'
p6701
I2042
sS'warnings'
p6702
I6
sS'_dec'
p6703
I5148
sS'path_info'
p6704
I1119
sS'70'
p6705
I6519
sS'opname'
p6706
I6346
sS'79'
p6707
I1316
sS'trans_5c'
p6708
I5807
sS'msg_count'
p6709
I1318
sS'run_checks'
p6710
I471
sS'classtype'
p6711
I6077
sS'make_naive'
p6712
I4284
sS'bmatch'
p6713
I7405
sS"'various"
p6714
I2650
sS'entity_decl'
p6715
I3273
sS'internal_use_only'
p6716
I3114
sS'guess_extension'
p6717
I3037
sS'template_context_processors'
p6718
I5117
sS'_result_cache'
p6719
I4122
sS'font'
p6720
I6869
sS'logging_settings'
p6721
I6657
sS'resolve_context'
p6722
I5505
sS'block_tag_end'
p6723
I4843
sS'display_name'
p6724
I5416
sS"'temporary_file_path"
p6725
I950
sS'value_encode'
p6726
I4470
sS'urljoin'
p6727
I899
sS'feed_guid'
p6728
I6171
sS'emailfield'
p6729
I3834
sS're_tag'
p6730
I7104
sS'lazy_number'
p6731
I7268
sS'emails'
p6732
I1328
sS'applied_migrations'
p6733
I2645
sS'getcallargs'
p6734
I4894
sS'resolve_variable'
p6735
I4880
sS'parse_endtag'
p6736
I6478
sS"'ext"
p6737
I6061
sS's_day'
p6738
I3681
sS'activity'
p6739
I4556
sS"'isatty"
p6740
I1648
sS"'div"
p6741
I6608
sS'link_prev'
p6742
I6702
sS'com/software/flup/'
p6743
I3357
sS'fks_to_parent'
p6744
I4238
sS'fext'
p6745
I3066
sS'add_fallback'
p6746
I7350
sS'tz_name'
p6747
I5750
sS'are'
p6748
I530
sS'arg'
p6749
I1639
sS'indentationerror'
p6750
I5657
sS"'\\\\\\\\"
p6751
I5151
sS'dictwrapper'
p6752
I5856
sS'false`'
p6753
I2129
sS'detect_conflicts'
p6754
I2497
sS'formatted'
p6755
I1731
sS"'instance"
p6756
I4184
sS'libraries'
p6757
I4888
sS"'read"
p6758
I793
sS'get_opt_string'
p6759
I1605
sS'formatter'
p6760
I5869
sS"'http_bad_request"
p6761
I7083
sS'assertcountequal'
p6762
I7015
sS'urlconf_module'
p6763
I1149
sS'creating'
p6764
I2623
sS'blankout'
p6765
I7373
sS'outfile'
p6766
I5596
sS'initlist'
p6767
I4270
sS'inotify_code_changed'
p6768
I5631
sS'mark_safe'
p6769
I3662
sS'http_cookies'
p6770
I4468
sS'current_expires'
p6771
I311
sS'c'
I1239
sS"'git"
p6772
I7437
sS'context'
p6773
I2953
sS"r'\\\\\\\\"
p6774
I6987
sS'dklen'
p6775
I5797
sS"'closevariable"
p6776
I5320
sS'reasons'
p6777
I2087
sS'_load_post_and_files'
p6778
I1216
sS'dummy_thread'
p6779
I7025
sS'compile_func'
p6780
I4956
sS"^'\\\\"
p6781
I4988
sS'slots'
p6782
I7010
sS"'control-c"
p6783
I2706
sS'java'
p6784
I6788
sS"'replace"
p6785
I4523
sS'py'
p6786
I1526
sS'pb'
p6787
I5225
sS'pc'
p6788
I1775
sS'backends'
p6789
I15
sS'pk'
p6790
I2017
sS'po'
p6791
I1813
sS're_camel_case'
p6792
I7108
sS'samefile'
p6793
I875
sS'appcommand'
p6794
I1737
sS'monthrange'
p6795
I5913
sS'resultclasses'
p6796
I6291
sS'msg_with_ctxt'
p6797
I7358
sS'usage'
p6798
I1552
sS'zfile'
p6799
I7158
sS"'reversing"
p6800
I3529
sS'ordering_field_name'
p6801
I4026
sS"'suffix"
p6802
I6073
sS'post_create_sql'
p6803
I2939
sS'__hash__'
p6804
I6311
sS"'uploadfileexception"
p6805
I1017
sS'fixture_name'
p6806
I2256
sS'new_permissions'
p6807
I3045
sS'fixture_count'
p6808
I2232
sS'sql_create_model'
p6809
I2627
sS'is_relation'
p6810
I2148
sS'_acquirelock'
p6811
I6083
sS'tags_re'
p6812
I6430
sS'get_connection'
p6813
I1275
sS'9'
I2651
sS'ser_fmts'
p6814
I2272
sS'run_from_argv'
p6815
I1626
sS'strip_prefix'
p6816
I2119
sS'domains'
p6817
I2422
sS'current_token'
p6818
I5529
sS'process_default'
p6819
I5635
sS"'__lt__"
p6820
I6339
sS'save_m2m'
p6821
I3145
sS"'sun"
p6822
I5952
sS'lower'
p6823
I1436
sS'data_set'
p6824
I3874
sS'relatedobject'
p6825
I4230
sS'_lock'
p6826
I394
sS'handle_uncaught_exception'
p6827
I1107
sS'csrf_token'
p6828
I5087
sS"'unique"
p6829
I2153
sS's_month'
p6830
I3679
sS'tables'
p6831
I1880
sS'loading'
p6832
I2273
sS'extracted'
p6833
I5594
sS"'default_cache_alias"
p6834
I36
sS'msgid'
p6835
I1416
sS'dnum'
p6836
I6618
sS'parseresult'
p6837
I6887
sS'_cookie_encodes_correctly'
p6838
I4469
sS'finder'
p6839
I6730
sS'8226'
p6840
I6362
sS'simpleuploadedfile'
p6841
I1008
sS'file_upload_max_memory_size'
p6842
I1047
sS'kwd_mark'
p6843
I6691
sS'environmenterror'
p6844
I378
sS'integer'
p6845
I3082
sS'value_from_datadict'
p6846
I3708
sS"'build_request_repr"
p6847
I4452
sS'deserialize'
p6848
I2265
sS'ignore'
p6849
I2227
sS'collect'
p6850
I5116
sS'__kw'
p6851
I6295
sS'translators'
p6852
I2367
sS'plan_node'
p6853
I2641
sS'//\\'
p6854
I6368
sS'hhmm'
p6855
I7220
sS'get_valid_name'
p6856
I919
sS'migration_progress_callback'
p6857
I2576
sS's/*'
p6858
I1850
sS'no_settings_commands'
p6859
I1617
sS'streaming'
p6860
I4823
sS'prepend_token'
p6861
I4954
sS"'rfc822"
p6862
I1495
sS"'chunks"
p6863
I914
sS"'error"
p6864
I483
sS'_get_files'
p6865
I1224
sS"'empty_label"
p6866
I3689
sS'smtphandler'
p6867
I6124
sS'prog'
p6868
I1611
sS'ngettext_lazy:1'
p6869
I2331
sS'chars'
p6870
I2832
sS"'modelform"
p6871
I4092
sS"'pathext"
p6872
I3062
sS'safe_join'
p6873
I903
sS'unused'
p6874
I5356
sS"'date_input_formats"
p6875
I3702
sS'unicodeerror'
p6876
I3581
sS'_browsers_deprecated_locales'
p6877
I7314
sS'pk__in'
p6878
I2018
sS'get_json_data'
p6879
I4267
sS'page'
p6880
I3081
sS'languages_bidi'
p6881
I7292
sS'range'
p6882
I3093
sS'nulldevice'
p6883
I5825
sS'dialog'
p6884
I6842
sS"'cols"
p6885
I4374
sS'plan'
p6886
I2586
sS"'mailto"
p6887
I6446
sS"'max_num_forms"
p6888
I4025
sS'locale_filenames'
p6889
I5625
sS"'missing_args_message"
p6890
I1637
sS'patch_response_headers'
p6891
I5732
sS'989'
p6892
I6677
sS'all_locale_paths'
p6893
I7361
sS'colorize'
p6894
I1698
sS'_base_set'
p6895
I285
sS'serialization_modules'
p6896
I3128
sS'parent_model'
p6897
I4236
sS'has_old_option'
p6898
I1652
sS'long'
p6899
I2405
sS"'object_name"
p6900
I2267
sS'files'
p6901
I333
sS'obj_pk'
p6902
I3229
sS'/sql'
p6903
I2936
sS"'migration_name"
p6904
I2565
sS"'enclosure"
p6905
I6199
sS'delta'
p6906
I198
sS"'choice"
p6907
I1673
sS'related_att'
p6908
I3233
sS'file_'
p6909
I6734
sS'http404'
p6910
I1131
sS'z'
I5886
sS'called'
p6911
I4974
sS'common_prefix'
p6912
I5587
sS'urlunsplit'
p6913
I3556
sS'warning'
p6914
I466
sS'media_property'
p6915
I4328
sS'malicious'
p6916
I4555
sS'_view_middleware'
p6917
I1072
sS'ifparser'
p6918
I5235
sS'test_flush'
p6919
I2597
sS'is_ajax'
p6920
I4626
sS'choiceinput'
p6921
I4398
sS"'nfkd"
p6922
I6281
sS'problems'
p6923
I1792
sS'generated'
p6924
I523
sS'_get_model'
p6925
I3188
sS'localtimezone'
p6926
I7218
sS"'iso-8859-1"
p6927
I1161
sS'daemon_threads'
p6928
I3332
sS'__contains__'
p6929
I117
sS'_app_dict'
p6930
I3486
sS'xmlrpc_server'
p6931
I6882
sS'default_attachment_mime_type'
p6932
I1256
sS'render_to_string'
p6933
I5435
sS'once'
p6934
I2821
sS'email_messages'
p6935
I1303
sS'maxrequests'
p6936
I3367
sS'filepath_to_uri'
p6937
I895
sS"'__slots__"
p6938
I7011
sS'new_args'
p6939
I6771
sS'_basecookie__set'
p6940
I4482
sS'issues'
p6941
I1729
sS'tkinter_simpledialog'
p6942
I6847
sS"'__le__"
p6943
I6341
sS'base64'
p6944
I229
sS'base62'
p6945
I3429
sS'languages'
p6946
I673
sS'natural-primary'
p6947
I1974
sS"'ipython"
p6948
I2733
sS'getargspec'
p6949
I4893
sS"'too_few_forms"
p6950
I4078
sS"'templatetag"
p6951
I5398
sS'splitresult'
p6952
I6888
sS'resolve_expression'
p6953
I5302
sS'get_function_defaults'
p6954
I6976
sS'to_current_timezone'
p6955
I3719
sS'takes_context'
p6956
I5048
sS'getstate'
p6957
I5786
sS'notes'
p6958
I2150
sS'underscores'
p6959
I3023
sS'_dir'
p6960
I341
sS'can_import_settings'
p6961
I1649
sS'fielderror'
p6962
I706
sS'lock_sh'
p6963
I822
sS"'httpresponse"
p6964
I4453
sS"'win32"
p6965
I1776
sS"'dependencies"
p6966
I2027
sS'databaseerror'
p6967
I239
sS'__prepare_class__'
p6968
I6296
sS"'blue"
p6969
I7047
sS"'clearablefileinput"
p6970
I4294
sS"'ignoring"
p6971
I2452
sS'linebreaks'
p6972
I5135
sS'import_library'
p6973
I4887
sS'unavailable'
p6974
I4772
sS'astimezone'
p6975
I7229
sS'exc_type'
p6976
I770
sS'_set_response_etag'
p6977
I5730
sS'im_self'
p6978
I6961
sS"'_post_render_callbacks"
p6979
I5498
sS'global_settings'
p6980
I1939
sS'settings_module'
p6981
I2714
sS'pretty_name'
p6982
I3908
sS'explore'
p6983
I2898
sS'__traceback__'
p6984
I6069
sS'get_form_error'
p6985
I4206
sS'get_commands'
p6986
I1533
sS'_name'
p6987
I998
sS'import_string'
p6988
I29
sS'user_part'
p6989
I3600
sS'table_output'
p6990
I1909
sS"'noreset"
p6991
I7067
sS'apr'
p6992
I6491
sS'app'
p6993
I603
sS'create_test_db'
p6994
I2892
sS'locale_paths'
p6995
I1840
sS'_template_response_middleware'
p6996
I1073
sS'cacheentry'
p6997
I260
sS"'latin-1"
p6998
I3416
sS"'closeblock"
p6999
I5318
sS'use'
p7000
I1201
sS'from'
p7001
I1
sS'&'
I532
sS'get_field_type'
p7002
I2160
sS'binascii'
p7003
I4488
sS'attribute'
p7004
I3252
sS"'selectmultiple"
p7005
I4302
sS'sort'
p7006
I3913
sS'compile_function_error'
p7007
I4959
sS'editable'
p7008
I4107
sS'__loaded_blocks'
p7009
I5461
sS'filter_name'
p7010
I4970
sS'nothreading'
p7011
I2681
sS'repo_dir'
p7012
I7435
sS'num_sent'
p7013
I1382
sS'raw_input'
p7014
I6812
sS'as_bytes'
p7015
I1311
sS'lookup_view_s'
p7016
I3538
sS'get_fixed_timezone'
p7017
I5928
sS'pk_is_not_editable'
p7018
I4222
sS'executor'
p7019
I2557
sS'token_string'
p7020
I4935
sS'single_brace_end'
p7021
I4849
sS"'cfg_convert"
p7022
I6064
sS'norm_patterns'
p7023
I2448
sS'tar'
p7024
I3039
sS"n't"
p7025
I927
sS'tag'
p7026
I653
sS'tab'
p7027
I2764
sS'deepcopy'
p7028
I3784
sS'cacheftphandler'
p7029
I6924
sS'externalentityrefhandler'
p7030
I3285
sS'six'
p7031
I231
sS'_js_escapes'
p7032
I6399
sS'manytomanyrel'
p7033
I3194
sS'import_path'
p7034
I969
sS'instead'
p7035
I1127
sS'sio'
p7036
I1171
sS'color_names'
p7037
I7042
sS'_get_height'
p7038
I783
sS'byte2int'
p7039
I6983
sS"'ngettext"
p7040
I7248
sS'childnodes'
p7041
I3260
sS'elif'
p7042
I160
sS'ws'
p7043
I6594
sS'interpreted'
p7044
I4277
sS"'parse_cookie"
p7045
I4447
sS'looks'
p7046
I520
sS'interpreter'
p7047
I2728
sS"'auth"
p7048
I2840
sS'write'
p7049
I362
sS'tempfile'
p7050
I331
sS'defining'
p7051
I4172
sS'_hashedseq'
p7052
I6684
sS'word_split_re'
p7053
I6365
sS'add_never_cache_headers'
p7054
I5737
sS'strfunc'
p7055
I5552
sS'log_message'
p7056
I3315
sS'technical_404_response'
p7057
I1136
sS'singular_suffix'
p7058
I5227
sS'trimmed'
p7059
I6447
sS'promise'
p7060
I6134
sS'_registry'
p7061
I6720
sS'kwarg_re'
p7062
I5042
sS'excluded_apps'
p7063
I2001
sS'httpresponsenotfound'
p7064
I4441
sS'bytes'
p7065
I954
sS'autoescape'
p7066
I2985
sS'related'
p7067
I3183
sS'domain_regex'
p7068
I3594
sS'emailmultialternatives'
p7069
I1253
sS'new_ip'
p7070
I6574
sS'use_inotify'
p7071
I5606
sS'handlers'
p7072
I1154
sS'category'
p7073
I6227
sS'command-line'
p7074
I1925
sS"'liveserver"
p7075
I2867
sS'resolved_kwargs'
p7076
I5060
sS'_wrapped'
p7077
I973
sS'\\w-'
p7078
I7312
sS"'unable"
p7079
I6072
sS'weekdays_rev'
p7080
I5953
sS'supports'
p7081
I1867
sS'get_resolved_arguments'
p7082
I5058
sS'delete_first_token'
p7083
I4968
sS'best_doublecolon_start'
p7084
I6557
sS'min_num_form_count'
p7085
I4022
sS'conflicts'
p7086
I2492
sS"'httpresponsepermanentredirect"
p7087
I4456
sS'unescape'
p7088
I6472
sS'parse_args'
p7089
I1543
sS'g'
I1446
sS'datetimefield'
p7090
I1906
sS'*'
I290
sS'echo'
p7091
I5666
sS'_prefixes'
p7092
I3436
sS"'accepted"
p7093
I4686
sS'unget'
p7094
I4547
sS"'status_code"
p7095
I1134
sS'handle_inspection'
p7096
I2108
sS"'bg"
p7097
I7066
sS'valid_forms'
p7098
I4196
sS'unknown'
p7099
I1540
sS'creator'
p7100
I6235
sS'priority'
p7101
I7412
sS'their'
p7102
I1937
sS"'help_text"
p7103
I3951
sS"'br"
p7104
I7123
sS'day_val'
p7105
I3697
sS"'by"
p7106
I5393
sS'shell'
p7107
I1927
sS'connection_class'
p7108
I1368
sS'tuple'
p7109
I1477
sS'__del__'
p7110
I984
sS'reversed'
p7111
I1536
sS'rfc1123_date'
p7112
I6505
sS'wsgi_opts'
p7113
I3363
sS'badheadererror'
p7114
I1258
sS'validate_comma_separated_integer_list'
p7115
I3631
sS'allowed_include_roots'
p7116
I5307
sS'new_filenames'
p7117
I5623
sS"'option_list"
p7118
I2874
sS'sec'
p7119
I6504
sS'has_internal_subset'
p7120
I3271
sS'accept_lang'
p7121
I7369
sS'queryset'
p7122
I2015
sS"'dns_name"
p7123
I1261
sS'myproject'
p7124
I1684
sS'_urllib_robotparser_moved_attributes'
p7125
I6940
sS'set_payload'
p7126
I1462
sS"'pax_global_header"
p7127
I5592
sS'target_var'
p7128
I5074
sS'use_natural_foreign_keys'
p7129
I1997
sS'ipaddr'
p7130
I2678
sS'program_options'
p7131
I1819
sS'which'
p7132
I632
sS'='
I31
sS'escape_filter'
p7133
I5186
sS'^\\'
p7134
I6635
sS'integerfield'
p7135
I3787
sS'clean_data'
p7136
I3881
sS'class'
p7137
I92
sS'^|'
p7138
I5984
sS'\\n\\n'
p7139
I2708
sS'get_current_timezone_name'
p7140
I680
sS'pipe'
p7141
I3048
sS'only_new'
p7142
I5620
sS'inputstreamexhausted'
p7143
I4495
sS'randrange'
p7144
I1413
sS'mainloop'
p7145
I2746
sS'syntaxerror'
p7146
I5658
sS'^\\s+'
p7147
I7375
sS'original_path'
p7148
I5569
sS'/script'
p7149
I4317
sS'check_for_language'
p7150
I6257
sS"'nodelist_false"
p7151
I5281
sS'_delegate_text'
p7152
I6305
sS'cache'
p7153
I14
sS'widget_value'
p7154
I4425
sS'_base_manager'
p7155
I2013
sS"'prefix"
p7156
I4048
sS'combo'
p7157
I2279
sS'local'
p7158
I4
sS'get_deserializer'
p7159
I3125
sS'get_host'
p7160
I4602
sS'handle_default_options'
p7161
I1517
sS'ones'
p7162
I2818
sS'arrange_for_graph'
p7163
I2512
sS'words'
p7164
I5174
sS'field_output'
p7165
I1912
sS'multipartparsererror'
p7166
I4494
sS'qs'
p7167
I4120
sS'httpresponsebadrequest'
p7168
I1234
sS'checkboxselectmultiple'
p7169
I4423
sS'var_obj'
p7170
I5009
sS"'outlog"
p7171
I3348
sS'old_umask'
p7172
I947
sS'queries'
p7173
I669
sS'msguniq_options'
p7174
I2361
sS'view'
p7175
I1093
sS'next_char'
p7176
I6750
sS'sql_destroy_indexes_for_model'
p7177
I2925
sS'module'
p7178
I1529
sS'multipart'
p7179
I1395
sS'labelcommand'
p7180
I1759
sS'serializer_module'
p7181
I3116
sS'serializers'
p7182
I1943
sS'record'
p7183
I6663
sS'do_with'
p7184
I5406
sS'truncate_text'
p7185
I7135
sS'favor'
p7186
I65
sS'closed'
p7187
I756
sS"'can_import_settings"
p7188
I1707
sS'get_image_dimensions'
p7189
I787
sS'opening'
p7190
I6443
sS'flatatt'
p7191
I3898
sS'boolean_attrs'
p7192
I4264
sS'fk_name'
p7193
I4237
sS"'*~"
p7194
I2401
sS"'logger"
p7195
I6094
sS'commands'
p7196
I1530
sS'kwds'
p7197
I1277
sS'process_all'
p7198
I2417
sS'wsgiref'
p7199
I3290
sS'django_colors'
p7200
I1779
sS'__locale'
p7201
I7329
sS"'oct"
p7202
I5973
sS'flush_all'
p7203
I446
sS'baseform'
p7204
I3923
sS'frozenset'
p7205
I6693
sS'chmod'
p7206
I871
sS'walk'
p7207
I1859
sS"r'^\\d+"
p7208
I6059
sS'sequences'
p7209
I2791
sS'table'
p7210
I244
sS'is_hidden'
p7211
I3947
sS"'process_view"
p7212
I1084
sS'`protocol`'
p7213
I3629
sS'literal'
p7214
I5026
sS'var_name'
p7215
I5301
sS'semaphore'
p7216
I7030
sS'parse_etags'
p7217
I6533
sS'ngettext_lazy'
p7218
I7276
sS"'mail_managers"
p7219
I1274
sS'present'
p7220
I2638
sS'skip_past'
p7221
I4962
sS'sorteddict'
p7222
I5837
sS'trans_bit'
p7223
I4931
sS'assertraisesregexp'
p7224
I7023
sS'bom_utf16_be'
p7225
I1810
sS'cursor'
p7226
I267
sS"'installed"
p7227
I1890
sS'resolved_path'
p7228
I3545
sS'~'
I6436
sS'rename'
p7229
I882
sS'/\\*'
p7230
I6590
sS'__import__'
p7231
I6066
sS'refs'
p7232
I2629
sS'smart_text'
p7233
I657
sS'fail_message'
p7234
I4111
sS'interesting_normal'
p7235
I6462
sS'lightweight'
p7236
I2673
sS'isocalendar'
p7237
I5907
sS'incr'
p7238
I197
sS'asctime_date'
p7239
I6508
sS'get`'
p7240
I1203
sS'member'
p7241
I5590
sS'tkinter_tksimpledialog'
p7242
I6873
sS'units'
p7243
I5163
sS'empty_value'
p7244
I3869
sS'from-code'
p7245
I2365
sS"'idna"
p7246
I1441
sS'_locs_'
p7247
I6994
sS"'tell"
p7248
I742
sS'requiredebugfalse'
p7249
I6649
sS'file_obj'
p7250
I4533
sS"'passwordinput"
p7251
I4291
sS"'choicefield"
p7252
I3745
sS'split_url'
p7253
I3852
sS'seconds2'
p7254
I7185
sS'isinstance'
p7255
I279
sS"'views"
p7256
I5754
sS'zip-compressed'
p7257
I2292
sS'console'
p7258
I1320
sS"'reply-to"
p7259
I1420
sS'point'
p7260
I3808
sS'find_template_loader'
p7261
I5422
sS"'timeout"
p7262
I141
sS"'green"
p7263
I7045
sS'cdata_section_node'
p7264
I3263
sS'reason'
p7265
I4788
sS"'comments"
p7266
I6196
sS'waiting_writers'
p7267
I7035
sS"'-inf"
p7268
I3798
sS'threadingmixin'
p7269
I3330
sS'04i_merge'
p7270
I2553
sS'add_filters'
p7271
I6118
sS'know'
p7272
I2907
sS'render_options'
p7273
I4388
sS"'o_binary"
p7274
I887
sS'_make_parser'
p7275
I3238
sS'new_result'
p7276
I6770
sS'epoch_seconds'
p7277
I6515
sS'expatparser'
p7278
I3218
sS'because'
p7279
I1758
sS'get_format_modules'
p7280
I6266
sS'sequence'
p7281
I3096
sS'lang_string'
p7282
I7411
sS'app_dict'
p7283
I3505
sS'searching'
p7284
I4978
sS'allow_multiple_selected'
p7285
I4387
sS'export'
p7286
I6600
sS'_is_shorthand_ip'
p7287
I6573
sS'star'
p7288
I6637
sS'_globs_'
p7289
I6993
sS'_generate_cache_key'
p7290
I5751
sS'leaf'
p7291
I5539
sS'lead'
p7292
I6439
sS'migrate_failure'
p7293
I2646
sS"'file"
p7294
I724
sS'get_exception_reporter_filter'
p7295
I6645
sS"'nullbooleanfield"
p7296
I2165
sS'addclosehook'
p7297
I6935
sS'content_type_extra'
p7298
I996
sS'enum'
p7299
I6599
sS"'use_l10n"
p7300
I5085
sS'help_text_html'
p7301
I3940
sS'reason_phrases'
p7302
I1157
sS'_container'
p7303
I4824
sS'compiled_parent'
p7304
I5454
sS'cwords'
p7305
I1577
sS'invalid_var_format_string'
p7306
I4911
sS'prefork'
p7307
I3373
sS"'\\nserver"
p7308
I2894
sS'extension'
p7309
I2373
sS'column'
p7310
I4980
sS'auto-generated'
p7311
I2121
sS'dependency'
p7312
I4757
sS'parse_file_upload'
p7313
I4635
sS'own'
p7314
I2899
sS'__builtin__'
p7315
I6811
sS'sql_flush'
p7316
I2039
sS'with_base_fields'
p7317
I3912
sS'negate'
p7318
I5293
sS'event_stream'
p7319
I3237
sS'httpresponsegone'
p7320
I4443
sS'val'
p7321
I195
sS"'fields_for_model"
p7322
I4095
sS'apps'
p7323
I489
sS'var'
p7324
I461
sS'token_var'
p7325
I4854
sS'numberawarestring'
p7326
I7269
sS'comment_notes'
p7327
I2145
sS'new_date'
p7328
I3710
sS"'bz2"
p7329
I2242
sS"'min_num"
p7330
I4084
sS'taglib'
p7331
I5387
sS'hexlify'
p7332
I5789
sS'comment_lineno_cache'
p7333
I7393
sS'made'
p7334
I2176
sS'temp'
p7335
I988
sS'whether'
p7336
I7274
sS"'text/plain"
p7337
I1009
sS'_get_unique_checks'
p7338
I4199
sS'below'
p7339
I4215
sS'iterated'
p7340
I5511
sS'is_valid_ipv6_address'
p7341
I3554
sS"'conflict"
p7342
I4730
sS'non-existent'
p7343
I2916
sS"'request_method"
p7344
I1182
sS'slug_re'
p7345
I3607
sS'list/tuple'
p7346
I3690
sS'luhn_odd_lookup'
p7347
I5768
sS'b64_encode'
p7348
I3400
sS'trailing'
p7349
I6639
sS'a-z0-9\\'
p7350
I3564
sS'a-z0-9_'
p7351
I6040
sS'ev'
p7352
I5660
sS"'ll"
p7353
I2122
sS'convertinglist'
p7354
I6048
sS'default_list'
p7355
I4661
sS"'save_form_data"
p7356
I4115
sS'getsize'
p7357
I741
sS'django_po'
p7358
I2462
sS'other'
p7359
I120
sS'bool'
p7360
I734
sS'branch'
p7361
I2541
sS'check_model_signals'
p7362
I617
sS'htmlparser'
p7363
I6350
sS'memoize'
p7364
I6288
sS"'10"
p7365
I4377
sS'junk'
p7366
I6474
sS'handle_endtag'
p7367
I6482
sS"'send_mail"
p7368
I1271
sS"'could"
p7369
I1333
sS'git_changeset'
p7370
I7430
sS'ambiguityerror'
p7371
I2559
sS'a-z0-9-'
p7372
I3567
sS'is_dst'
p7373
I7219
sS"'var"
p7374
I4903
sS'get_available_name'
p7375
I915
sS'ifilter'
p7376
I6808
sS'_is_rendered'
p7377
I5501
sS'a-z_'
p7378
I6039
sS'xmlrpclib'
p7379
I6880
sS'bad_serializer'
p7380
I3118
sS'cache_get'
p7381
I6698
s.